Component: ARM Compiler 5.06 update 1 (build 61) Tool: armlink [4d35a8]

==============================================================================

Section Cross References

    system_stm32f10x.o(i.SetSysClock) refers to system_stm32f10x.o(i.SetSysClockTo72) for SetSysClockTo72
    system_stm32f10x.o(i.SystemCoreClockUpdate) refers to system_stm32f10x.o(.data) for SystemCoreClock
    system_stm32f10x.o(i.SystemInit) refers to system_stm32f10x.o(i.SetSysClock) for SetSysClock
    startup_stm32f10x_md.o(RESET) refers to startup_stm32f10x_md.o(STACK) for __initial_sp
    startup_stm32f10x_md.o(RESET) refers to startup_stm32f10x_md.o(.text) for Reset_Handler
    startup_stm32f10x_md.o(RESET) refers to stm32f10x_it.o(i.NMI_Handler) for NMI_Handler
    startup_stm32f10x_md.o(RESET) refers to stm32f10x_it.o(i.HardFault_Handler) for HardFault_Handler
    startup_stm32f10x_md.o(RESET) refers to stm32f10x_it.o(i.MemManage_Handler) for MemManage_Handler
    startup_stm32f10x_md.o(RESET) refers to stm32f10x_it.o(i.BusFault_Handler) for BusFault_Handler
    startup_stm32f10x_md.o(RESET) refers to stm32f10x_it.o(i.UsageFault_Handler) for UsageFault_Handler
    startup_stm32f10x_md.o(RESET) refers to stm32f10x_it.o(i.SVC_Handler) for SVC_Handler
    startup_stm32f10x_md.o(RESET) refers to stm32f10x_it.o(i.DebugMon_Handler) for DebugMon_Handler
    startup_stm32f10x_md.o(RESET) refers to stm32f10x_it.o(i.PendSV_Handler) for PendSV_Handler
    startup_stm32f10x_md.o(RESET) refers to stm32f10x_it.o(i.SysTick_Handler) for SysTick_Handler
    startup_stm32f10x_md.o(RESET) refers to uart1.o(i.USART1_IRQHandler) for USART1_IRQHandler
    startup_stm32f10x_md.o(RESET) refers to usart2.o(i.USART2_IRQHandler) for USART2_IRQHandler
    startup_stm32f10x_md.o(RESET) refers to ano_dt.o(i.USART3_IRQHandler) for USART3_IRQHandler
    startup_stm32f10x_md.o(.text) refers to system_stm32f10x.o(i.SystemInit) for SystemInit
    startup_stm32f10x_md.o(.text) refers to entry.o(.ARM.Collect$$$$00000000) for __main
    stm32f10x_it.o(i.SysTick_Handler) refers to delay.o(i.SysTick_IRQ) for SysTick_IRQ
    main.o(i.IWDG_Feed) refers to stm32f10x_iwdg.o(i.IWDG_ReloadCounter) for IWDG_ReloadCounter
    main.o(i.IWDG_Init) refers to stm32f10x_iwdg.o(i.IWDG_WriteAccessCmd) for IWDG_WriteAccessCmd
    main.o(i.IWDG_Init) refers to stm32f10x_iwdg.o(i.IWDG_SetPrescaler) for IWDG_SetPrescaler
    main.o(i.IWDG_Init) refers to stm32f10x_iwdg.o(i.IWDG_SetReload) for IWDG_SetReload
    main.o(i.IWDG_Init) refers to stm32f10x_iwdg.o(i.IWDG_ReloadCounter) for IWDG_ReloadCounter
    main.o(i.IWDG_Init) refers to stm32f10x_iwdg.o(i.IWDG_Enable) for IWDG_Enable
    main.o(i.main) refers to delay.o(i.cycleCounterInit) for cycleCounterInit
    main.o(i.main) refers to misc.o(i.NVIC_PriorityGroupConfig) for NVIC_PriorityGroupConfig
    main.o(i.main) refers to init.o(i.ALL_Init) for ALL_Init
    main.o(i.main) refers to main.o(i.IWDG_Init) for IWDG_Init
    main.o(i.main) refers to scheduler.o(i.main_loop) for main_loop
    main.o(i.main) refers to main.o(i.IWDG_Feed) for IWDG_Feed
    main.o(i.main) refers to system_stm32f10x.o(.data) for SystemCoreClock
    delay.o(i.GetSysTime_us) refers to init.o(.data) for SysTick_count
    delay.o(i.GetSysTime_us) refers to delay.o(.data) for usTicks
    delay.o(i.SysTick_IRQ) refers to scheduler.o(i.Loop_check) for Loop_check
    delay.o(i.SysTick_IRQ) refers to init.o(.data) for SysTick_count
    delay.o(i.SysTick_IRQ) refers to delay.o(.data) for sys_init_ok
    delay.o(i.cycleCounterInit) refers to stm32f10x_rcc.o(i.RCC_GetClocksFreq) for RCC_GetClocksFreq
    delay.o(i.cycleCounterInit) refers to delay.o(.data) for usTicks
    delay.o(i.delay_ms) refers to delay.o(i.GetSysTime_us) for GetSysTime_us
    delay.o(i.delay_ms) refers to delay.o(.data) for SysTick_count22
    delay.o(i.micros) refers to ffltui.o(.text) for __aeabi_ui2f
    delay.o(i.micros) refers to fdiv.o(.text) for __aeabi_fdiv
    delay.o(i.micros) refers to fadd.o(.text) for __aeabi_fadd
    delay.o(i.micros) refers to delay.o(.data) for SysTick_count22
    scheduler.o(i.Duty_1000ms) refers to nrf24l01.o(.data) for NRF_SSI_CNT
    scheduler.o(i.Duty_1000ms) refers to wifi_ufo.o(.data) for WIFI_SSI_CNT
    scheduler.o(i.Duty_1000ms) refers to scheduler.o(.data) for Locat_SSI_CNT
    scheduler.o(i.Duty_1000ms) refers to ano_data_transfer.o(.data) for Locat_Err
    scheduler.o(i.Duty_1000ms) refers to scheduler.o(.bss) for time
    scheduler.o(i.Duty_10ms) refers to delay.o(i.GetSysTime_us) for GetSysTime_us
    scheduler.o(i.Duty_10ms) refers to remote.o(i.RC_Analy) for RC_Analy
    scheduler.o(i.Duty_10ms) refers to scheduler.o(.bss) for time
    scheduler.o(i.Duty_20ms) refers to delay.o(i.GetSysTime_us) for GetSysTime_us
    scheduler.o(i.Duty_20ms) refers to ano_dt.o(i.ANTO_polling) for ANTO_polling
    scheduler.o(i.Duty_20ms) refers to scheduler.o(.bss) for time
    scheduler.o(i.Duty_2ms) refers to delay.o(i.GetSysTime_us) for GetSysTime_us
    scheduler.o(i.Duty_2ms) refers to mpu6050.o(i.MpuGetData) for MpuGetData
    scheduler.o(i.Duty_2ms) refers to control.o(i.FlightPidControl) for FlightPidControl
    scheduler.o(i.Duty_2ms) refers to control.o(i.MotorControl) for MotorControl
    scheduler.o(i.Duty_2ms) refers to scheduler.o(.bss) for time
    scheduler.o(i.Duty_4ms) refers to delay.o(i.GetSysTime_us) for GetSysTime_us
    scheduler.o(i.Duty_4ms) refers to nrf24l01.o(i.ANO_NRF_Check_Event) for ANO_NRF_Check_Event
    scheduler.o(i.Duty_4ms) refers to ano_data_transfer.o(i.ANO_DT_Data_Exchange) for ANO_DT_Data_Exchange
    scheduler.o(i.Duty_4ms) refers to remote.o(i.Rc_Connect) for Rc_Connect
    scheduler.o(i.Duty_4ms) refers to scheduler.o(.bss) for time
    scheduler.o(i.Duty_50ms) refers to delay.o(i.GetSysTime_us) for GetSysTime_us
    scheduler.o(i.Duty_50ms) refers to led.o(i.PilotLED) for PilotLED
    scheduler.o(i.Duty_50ms) refers to ano_data_transfer.o(i.Flag_Check) for Flag_Check
    scheduler.o(i.Duty_50ms) refers to scheduler.o(.bss) for time
    scheduler.o(i.Duty_6ms) refers to delay.o(i.GetSysTime_us) for GetSysTime_us
    scheduler.o(i.Duty_6ms) refers to imu.o(i.GetAngle) for GetAngle
    scheduler.o(i.Duty_6ms) refers to scheduler.o(.bss) for time
    scheduler.o(i.Duty_6ms) refers to init.o(.bss) for Angle
    scheduler.o(i.Loop_check) refers to scheduler.o(.bss) for loop
    scheduler.o(i.main_loop) refers to scheduler.o(i.Duty_2ms) for Duty_2ms
    scheduler.o(i.main_loop) refers to scheduler.o(i.Duty_4ms) for Duty_4ms
    scheduler.o(i.main_loop) refers to scheduler.o(i.Duty_6ms) for Duty_6ms
    scheduler.o(i.main_loop) refers to scheduler.o(i.Duty_10ms) for Duty_10ms
    scheduler.o(i.main_loop) refers to scheduler.o(i.Duty_20ms) for Duty_20ms
    scheduler.o(i.main_loop) refers to scheduler.o(i.Duty_50ms) for Duty_50ms
    scheduler.o(i.main_loop) refers to scheduler.o(i.Duty_1000ms) for Duty_1000ms
    scheduler.o(i.main_loop) refers to scheduler.o(.bss) for loop
    init.o(i.ALL_Init) refers to iic_software.o(i.IIC_Init) for IIC_Init
    init.o(i.ALL_Init) refers to init.o(i.pid_param_Init) for pid_param_Init
    init.o(i.ALL_Init) refers to led.o(i.LEDInit) for LEDInit
    init.o(i.ALL_Init) refers to mpu6050.o(i.MpuInit) for MpuInit
    init.o(i.ALL_Init) refers to uart1.o(i.ANO_Uart1_Init) for ANO_Uart1_Init
    init.o(i.ALL_Init) refers to usart3.o(i.USART3_Config) for USART3_Config
    init.o(i.ALL_Init) refers to nrf24l01.o(i.NRF24L01_init) for NRF24L01_init
    init.o(i.ALL_Init) refers to tim.o(i.TIM2_PWM_Config) for TIM2_PWM_Config
    init.o(i.ALL_Init) refers to tim.o(i.TIM3_PWM_Config) for TIM3_PWM_Config
    init.o(i.ALL_Init) refers to init.o(.data) for spl_flag
    init.o(i.ALL_Init) refers to nrf24l01.o(.data) for SPL_Err
    init.o(i.GetLockCode) refers to init.o(.data) for ST_CpuID
    init.o(i.pid_param_Init) refers to init.o(.bss) for pidRateX
    init.o(i.pid_param_Init) refers to init.o(.data) for Command
    stm32f10x_adc.o(i.ADC_DeInit) refers to stm32f10x_rcc.o(i.RCC_APB2PeriphResetCmd) for RCC_APB2PeriphResetCmd
    stm32f10x_bkp.o(i.BKP_DeInit) refers to stm32f10x_rcc.o(i.RCC_BackupResetCmd) for RCC_BackupResetCmd
    stm32f10x_can.o(i.CAN_DeInit) refers to stm32f10x_rcc.o(i.RCC_APB1PeriphResetCmd) for RCC_APB1PeriphResetCmd
    stm32f10x_can.o(i.CAN_GetITStatus) refers to stm32f10x_can.o(i.CheckITStatus) for CheckITStatus
    stm32f10x_cec.o(i.CEC_DeInit) refers to stm32f10x_rcc.o(i.RCC_APB1PeriphResetCmd) for RCC_APB1PeriphResetCmd
    stm32f10x_dac.o(i.DAC_DeInit) refers to stm32f10x_rcc.o(i.RCC_APB1PeriphResetCmd) for RCC_APB1PeriphResetCmd
    stm32f10x_flash.o(i.FLASH_EnableWriteProtection) refers to stm32f10x_flash.o(i.FLASH_WaitForLastOperation) for FLASH_WaitForLastOperation
    stm32f10x_flash.o(i.FLASH_EraseAllBank1Pages) refers to stm32f10x_flash.o(i.FLASH_WaitForLastBank1Operation) for FLASH_WaitForLastBank1Operation
    stm32f10x_flash.o(i.FLASH_EraseAllPages) refers to stm32f10x_flash.o(i.FLASH_WaitForLastOperation) for FLASH_WaitForLastOperation
    stm32f10x_flash.o(i.FLASH_EraseOptionBytes) refers to stm32f10x_flash.o(i.FLASH_GetReadOutProtectionStatus) for FLASH_GetReadOutProtectionStatus
    stm32f10x_flash.o(i.FLASH_EraseOptionBytes) refers to stm32f10x_flash.o(i.FLASH_WaitForLastOperation) for FLASH_WaitForLastOperation
    stm32f10x_flash.o(i.FLASH_ErasePage) refers to stm32f10x_flash.o(i.FLASH_WaitForLastOperation) for FLASH_WaitForLastOperation
    stm32f10x_flash.o(i.FLASH_ProgramHalfWord) refers to stm32f10x_flash.o(i.FLASH_WaitForLastOperation) for FLASH_WaitForLastOperation
    stm32f10x_flash.o(i.FLASH_ProgramOptionByteData) refers to stm32f10x_flash.o(i.FLASH_WaitForLastOperation) for FLASH_WaitForLastOperation
    stm32f10x_flash.o(i.FLASH_ProgramWord) refers to stm32f10x_flash.o(i.FLASH_WaitForLastOperation) for FLASH_WaitForLastOperation
    stm32f10x_flash.o(i.FLASH_ReadOutProtection) refers to stm32f10x_flash.o(i.FLASH_WaitForLastOperation) for FLASH_WaitForLastOperation
    stm32f10x_flash.o(i.FLASH_UserOptionByteConfig) refers to stm32f10x_flash.o(i.FLASH_WaitForLastOperation) for FLASH_WaitForLastOperation
    stm32f10x_flash.o(i.FLASH_WaitForLastBank1Operation) refers to stm32f10x_flash.o(i.FLASH_GetBank1Status) for FLASH_GetBank1Status
    stm32f10x_flash.o(i.FLASH_WaitForLastOperation) refers to stm32f10x_flash.o(i.FLASH_GetBank1Status) for FLASH_GetBank1Status
    stm32f10x_gpio.o(i.GPIO_AFIODeInit) refers to stm32f10x_rcc.o(i.RCC_APB2PeriphResetCmd) for RCC_APB2PeriphResetCmd
    stm32f10x_gpio.o(i.GPIO_DeInit) refers to stm32f10x_rcc.o(i.RCC_APB2PeriphResetCmd) for RCC_APB2PeriphResetCmd
    stm32f10x_i2c.o(i.I2C_DeInit) refers to stm32f10x_rcc.o(i.RCC_APB1PeriphResetCmd) for RCC_APB1PeriphResetCmd
    stm32f10x_i2c.o(i.I2C_Init) refers to stm32f10x_rcc.o(i.RCC_GetClocksFreq) for RCC_GetClocksFreq
    stm32f10x_pwr.o(i.PWR_DeInit) refers to stm32f10x_rcc.o(i.RCC_APB1PeriphResetCmd) for RCC_APB1PeriphResetCmd
    stm32f10x_rcc.o(i.RCC_GetClocksFreq) refers to stm32f10x_rcc.o(.data) for APBAHBPrescTable
    stm32f10x_rcc.o(i.RCC_WaitForHSEStartUp) refers to stm32f10x_rcc.o(i.RCC_GetFlagStatus) for RCC_GetFlagStatus
    stm32f10x_rtc.o(i.RTC_SetAlarm) refers to stm32f10x_rtc.o(i.RTC_EnterConfigMode) for RTC_EnterConfigMode
    stm32f10x_rtc.o(i.RTC_SetAlarm) refers to stm32f10x_rtc.o(i.RTC_ExitConfigMode) for RTC_ExitConfigMode
    stm32f10x_rtc.o(i.RTC_SetCounter) refers to stm32f10x_rtc.o(i.RTC_EnterConfigMode) for RTC_EnterConfigMode
    stm32f10x_rtc.o(i.RTC_SetCounter) refers to stm32f10x_rtc.o(i.RTC_ExitConfigMode) for RTC_ExitConfigMode
    stm32f10x_rtc.o(i.RTC_SetPrescaler) refers to stm32f10x_rtc.o(i.RTC_EnterConfigMode) for RTC_EnterConfigMode
    stm32f10x_rtc.o(i.RTC_SetPrescaler) refers to stm32f10x_rtc.o(i.RTC_ExitConfigMode) for RTC_ExitConfigMode
    stm32f10x_spi.o(i.I2S_Init) refers to stm32f10x_rcc.o(i.RCC_GetClocksFreq) for RCC_GetClocksFreq
    stm32f10x_spi.o(i.SPI_I2S_DeInit) refers to stm32f10x_rcc.o(i.RCC_APB2PeriphResetCmd) for RCC_APB2PeriphResetCmd
    stm32f10x_spi.o(i.SPI_I2S_DeInit) refers to stm32f10x_rcc.o(i.RCC_APB1PeriphResetCmd) for RCC_APB1PeriphResetCmd
    stm32f10x_tim.o(i.TIM_DeInit) refers to stm32f10x_rcc.o(i.RCC_APB2PeriphResetCmd) for RCC_APB2PeriphResetCmd
    stm32f10x_tim.o(i.TIM_DeInit) refers to stm32f10x_rcc.o(i.RCC_APB1PeriphResetCmd) for RCC_APB1PeriphResetCmd
    stm32f10x_tim.o(i.TIM_ETRClockMode1Config) refers to stm32f10x_tim.o(i.TIM_ETRConfig) for TIM_ETRConfig
    stm32f10x_tim.o(i.TIM_ETRClockMode2Config) refers to stm32f10x_tim.o(i.TIM_ETRConfig) for TIM_ETRConfig
    stm32f10x_tim.o(i.TIM_ICInit) refers to stm32f10x_tim.o(i.TI1_Config) for TI1_Config
    stm32f10x_tim.o(i.TIM_ICInit) refers to stm32f10x_tim.o(i.TIM_SetIC1Prescaler) for TIM_SetIC1Prescaler
    stm32f10x_tim.o(i.TIM_ICInit) refers to stm32f10x_tim.o(i.TI2_Config) for TI2_Config
    stm32f10x_tim.o(i.TIM_ICInit) refers to stm32f10x_tim.o(i.TIM_SetIC2Prescaler) for TIM_SetIC2Prescaler
    stm32f10x_tim.o(i.TIM_ICInit) refers to stm32f10x_tim.o(i.TI3_Config) for TI3_Config
    stm32f10x_tim.o(i.TIM_ICInit) refers to stm32f10x_tim.o(i.TIM_SetIC3Prescaler) for TIM_SetIC3Prescaler
    stm32f10x_tim.o(i.TIM_ICInit) refers to stm32f10x_tim.o(i.TI4_Config) for TI4_Config
    stm32f10x_tim.o(i.TIM_ICInit) refers to stm32f10x_tim.o(i.TIM_SetIC4Prescaler) for TIM_SetIC4Prescaler
    stm32f10x_tim.o(i.TIM_ITRxExternalClockConfig) refers to stm32f10x_tim.o(i.TIM_SelectInputTrigger) for TIM_SelectInputTrigger
    stm32f10x_tim.o(i.TIM_PWMIConfig) refers to stm32f10x_tim.o(i.TI1_Config) for TI1_Config
    stm32f10x_tim.o(i.TIM_PWMIConfig) refers to stm32f10x_tim.o(i.TIM_SetIC1Prescaler) for TIM_SetIC1Prescaler
    stm32f10x_tim.o(i.TIM_PWMIConfig) refers to stm32f10x_tim.o(i.TI2_Config) for TI2_Config
    stm32f10x_tim.o(i.TIM_PWMIConfig) refers to stm32f10x_tim.o(i.TIM_SetIC2Prescaler) for TIM_SetIC2Prescaler
    stm32f10x_tim.o(i.TIM_TIxExternalClockConfig) refers to stm32f10x_tim.o(i.TI2_Config) for TI2_Config
    stm32f10x_tim.o(i.TIM_TIxExternalClockConfig) refers to stm32f10x_tim.o(i.TI1_Config) for TI1_Config
    stm32f10x_tim.o(i.TIM_TIxExternalClockConfig) refers to stm32f10x_tim.o(i.TIM_SelectInputTrigger) for TIM_SelectInputTrigger
    stm32f10x_usart.o(i.USART_DeInit) refers to stm32f10x_rcc.o(i.RCC_APB2PeriphResetCmd) for RCC_APB2PeriphResetCmd
    stm32f10x_usart.o(i.USART_DeInit) refers to stm32f10x_rcc.o(i.RCC_APB1PeriphResetCmd) for RCC_APB1PeriphResetCmd
    stm32f10x_usart.o(i.USART_Init) refers to stm32f10x_rcc.o(i.RCC_GetClocksFreq) for RCC_GetClocksFreq
    stm32f10x_wwdg.o(i.WWDG_DeInit) refers to stm32f10x_rcc.o(i.RCC_APB1PeriphResetCmd) for RCC_APB1PeriphResetCmd
    iic_software.o(i.I2c_Soft_ReadByte) refers to iic_software.o(i.I2c_WaitAck) for I2c_WaitAck
    iic_software.o(i.I2c_Soft_ReadByte) refers to iic_software.o(i.I2c_NoAck) for I2c_NoAck
    iic_software.o(i.IIC_Init) refers to stm32f10x_rcc.o(i.RCC_APB2PeriphClockCmd) for RCC_APB2PeriphClockCmd
    iic_software.o(i.IIC_Init) refers to stm32f10x_gpio.o(i.GPIO_Init) for GPIO_Init
    iic_software.o(i.IIC_Read_1Byte) refers to iic_software.o(i.I2c_Start) for I2c_Start
    iic_software.o(i.IIC_Read_1Byte) refers to iic_software.o(i.I2c_SendByte) for I2c_SendByte
    iic_software.o(i.IIC_Read_1Byte) refers to iic_software.o(i.I2c_WaitAck) for I2c_WaitAck
    iic_software.o(i.IIC_Read_1Byte) refers to iic_software.o(i.I2c_Stop) for I2c_Stop
    iic_software.o(i.IIC_Read_1Byte) refers to iic_software.o(i.I2c_ReadByte) for I2c_ReadByte
    iic_software.o(i.IIC_Read_One_Byte) refers to iic_software.o(i.I2c_Start) for I2c_Start
    iic_software.o(i.IIC_Read_One_Byte) refers to iic_software.o(i.I2c_SendByte) for I2c_SendByte
    iic_software.o(i.IIC_Read_One_Byte) refers to iic_software.o(i.I2c_WaitAck) for I2c_WaitAck
    iic_software.o(i.IIC_Read_One_Byte) refers to iic_software.o(i.I2c_Stop) for I2c_Stop
    iic_software.o(i.IIC_Read_One_Byte) refers to iic_software.o(i.I2c_ReadByte) for I2c_ReadByte
    iic_software.o(i.IIC_Read_One_Byte) refers to iic_software.o(i.I2c_NoAck) for I2c_NoAck
    iic_software.o(i.IIC_Read_nS_Byte) refers to iic_software.o(i.I2c_Start) for I2c_Start
    iic_software.o(i.IIC_Read_nS_Byte) refers to iic_software.o(i.I2c_SendByte) for I2c_SendByte
    iic_software.o(i.IIC_Read_nS_Byte) refers to iic_software.o(i.I2c_WaitAck) for I2c_WaitAck
    iic_software.o(i.IIC_Read_nS_Byte) refers to iic_software.o(i.I2c_Stop) for I2c_Stop
    iic_software.o(i.IIC_Read_nS_Byte) refers to iic_software.o(i.I2c_Soft_ReadByte) for I2c_Soft_ReadByte
    iic_software.o(i.IIC_Write_Bytes) refers to iic_software.o(i.I2c_Start) for I2c_Start
    iic_software.o(i.IIC_Write_Bytes) refers to iic_software.o(i.I2c_SendByte) for I2c_SendByte
    iic_software.o(i.IIC_Write_Bytes) refers to iic_software.o(i.I2c_WaitAck) for I2c_WaitAck
    iic_software.o(i.IIC_Write_Bytes) refers to iic_software.o(i.I2c_Stop) for I2c_Stop
    iic_software.o(i.IIC_Write_One_Byte) refers to iic_software.o(i.I2c_Start) for I2c_Start
    iic_software.o(i.IIC_Write_One_Byte) refers to iic_software.o(i.I2c_SendByte) for I2c_SendByte
    iic_software.o(i.IIC_Write_One_Byte) refers to iic_software.o(i.I2c_WaitAck) for I2c_WaitAck
    iic_software.o(i.IIC_Write_One_Byte) refers to iic_software.o(i.I2c_Stop) for I2c_Stop
    iic_software.o(i.IIC_read_Bytes) refers to iic_software.o(i.I2c_Start) for I2c_Start
    iic_software.o(i.IIC_read_Bytes) refers to iic_software.o(i.I2c_SendByte) for I2c_SendByte
    iic_software.o(i.IIC_read_Bytes) refers to iic_software.o(i.I2c_WaitAck) for I2c_WaitAck
    iic_software.o(i.IIC_read_Bytes) refers to iic_software.o(i.I2c_Stop) for I2c_Stop
    iic_software.o(i.IIC_read_Bytes) refers to iic_software.o(i.I2c_ReadByte) for I2c_ReadByte
    iic_software.o(i.IIC_read_Bytes) refers to iic_software.o(i.I2c_NoAck) for I2c_NoAck
    iic_software.o(i.IIC_read_Bytes) refers to iic_software.o(i.I2c_Ack) for I2c_Ack
    tim.o(i.TIM2_PWM_Config) refers to stm32f10x_rcc.o(i.RCC_APB2PeriphClockCmd) for RCC_APB2PeriphClockCmd
    tim.o(i.TIM2_PWM_Config) refers to stm32f10x_gpio.o(i.GPIO_Init) for GPIO_Init
    tim.o(i.TIM2_PWM_Config) refers to stm32f10x_rcc.o(i.RCC_APB1PeriphClockCmd) for RCC_APB1PeriphClockCmd
    tim.o(i.TIM2_PWM_Config) refers to stm32f10x_tim.o(i.TIM_TimeBaseInit) for TIM_TimeBaseInit
    tim.o(i.TIM2_PWM_Config) refers to stm32f10x_tim.o(i.TIM_OC1Init) for TIM_OC1Init
    tim.o(i.TIM2_PWM_Config) refers to stm32f10x_tim.o(i.TIM_OC1PreloadConfig) for TIM_OC1PreloadConfig
    tim.o(i.TIM2_PWM_Config) refers to stm32f10x_tim.o(i.TIM_OC2Init) for TIM_OC2Init
    tim.o(i.TIM2_PWM_Config) refers to stm32f10x_tim.o(i.TIM_OC2PreloadConfig) for TIM_OC2PreloadConfig
    tim.o(i.TIM2_PWM_Config) refers to stm32f10x_tim.o(i.TIM_OC3Init) for TIM_OC3Init
    tim.o(i.TIM2_PWM_Config) refers to stm32f10x_tim.o(i.TIM_OC3PreloadConfig) for TIM_OC3PreloadConfig
    tim.o(i.TIM2_PWM_Config) refers to stm32f10x_tim.o(i.TIM_OC4Init) for TIM_OC4Init
    tim.o(i.TIM2_PWM_Config) refers to stm32f10x_tim.o(i.TIM_OC4PreloadConfig) for TIM_OC4PreloadConfig
    tim.o(i.TIM2_PWM_Config) refers to stm32f10x_tim.o(i.TIM_ARRPreloadConfig) for TIM_ARRPreloadConfig
    tim.o(i.TIM2_PWM_Config) refers to stm32f10x_tim.o(i.TIM_Cmd) for TIM_Cmd
    tim.o(i.TIM2_PWM_Config) refers to system_stm32f10x.o(.data) for SystemCoreClock
    tim.o(i.TIM3_PWM_Config) refers to stm32f10x_rcc.o(i.RCC_APB1PeriphClockCmd) for RCC_APB1PeriphClockCmd
    tim.o(i.TIM3_PWM_Config) refers to stm32f10x_rcc.o(i.RCC_APB2PeriphClockCmd) for RCC_APB2PeriphClockCmd
    tim.o(i.TIM3_PWM_Config) refers to stm32f10x_gpio.o(i.GPIO_PinRemapConfig) for GPIO_PinRemapConfig
    tim.o(i.TIM3_PWM_Config) refers to stm32f10x_gpio.o(i.GPIO_Init) for GPIO_Init
    tim.o(i.TIM3_PWM_Config) refers to stm32f10x_tim.o(i.TIM_TimeBaseInit) for TIM_TimeBaseInit
    tim.o(i.TIM3_PWM_Config) refers to stm32f10x_tim.o(i.TIM_OC1Init) for TIM_OC1Init
    tim.o(i.TIM3_PWM_Config) refers to stm32f10x_tim.o(i.TIM_OC1PreloadConfig) for TIM_OC1PreloadConfig
    tim.o(i.TIM3_PWM_Config) refers to stm32f10x_tim.o(i.TIM_OC2Init) for TIM_OC2Init
    tim.o(i.TIM3_PWM_Config) refers to stm32f10x_tim.o(i.TIM_OC2PreloadConfig) for TIM_OC2PreloadConfig
    tim.o(i.TIM3_PWM_Config) refers to stm32f10x_tim.o(i.TIM_OC3Init) for TIM_OC3Init
    tim.o(i.TIM3_PWM_Config) refers to stm32f10x_tim.o(i.TIM_OC3PreloadConfig) for TIM_OC3PreloadConfig
    tim.o(i.TIM3_PWM_Config) refers to stm32f10x_tim.o(i.TIM_OC4Init) for TIM_OC4Init
    tim.o(i.TIM3_PWM_Config) refers to stm32f10x_tim.o(i.TIM_OC4PreloadConfig) for TIM_OC4PreloadConfig
    tim.o(i.TIM3_PWM_Config) refers to stm32f10x_tim.o(i.TIM_ARRPreloadConfig) for TIM_ARRPreloadConfig
    tim.o(i.TIM3_PWM_Config) refers to stm32f10x_tim.o(i.TIM_Cmd) for TIM_Cmd
    tim.o(i.TIM3_PWM_Config) refers to system_stm32f10x.o(.data) for SystemCoreClock
    adc.o(i.ADC1_GPIO_Config) refers to stm32f10x_rcc.o(i.RCC_AHBPeriphClockCmd) for RCC_AHBPeriphClockCmd
    adc.o(i.ADC1_GPIO_Config) refers to stm32f10x_rcc.o(i.RCC_APB2PeriphClockCmd) for RCC_APB2PeriphClockCmd
    adc.o(i.ADC1_GPIO_Config) refers to stm32f10x_gpio.o(i.GPIO_Init) for GPIO_Init
    adc.o(i.ADC1_Init) refers to adc.o(i.ADC1_GPIO_Config) for ADC1_GPIO_Config
    adc.o(i.ADC1_Init) refers to adc.o(i.ADC1_Mode_Config) for ADC1_Mode_Config
    adc.o(i.ADC1_Mode_Config) refers to stm32f10x_dma.o(i.DMA_DeInit) for DMA_DeInit
    adc.o(i.ADC1_Mode_Config) refers to stm32f10x_dma.o(i.DMA_Init) for DMA_Init
    adc.o(i.ADC1_Mode_Config) refers to stm32f10x_dma.o(i.DMA_Cmd) for DMA_Cmd
    adc.o(i.ADC1_Mode_Config) refers to stm32f10x_adc.o(i.ADC_Init) for ADC_Init
    adc.o(i.ADC1_Mode_Config) refers to stm32f10x_rcc.o(i.RCC_ADCCLKConfig) for RCC_ADCCLKConfig
    adc.o(i.ADC1_Mode_Config) refers to stm32f10x_adc.o(i.ADC_RegularChannelConfig) for ADC_RegularChannelConfig
    adc.o(i.ADC1_Mode_Config) refers to stm32f10x_adc.o(i.ADC_DMACmd) for ADC_DMACmd
    adc.o(i.ADC1_Mode_Config) refers to stm32f10x_adc.o(i.ADC_Cmd) for ADC_Cmd
    adc.o(i.ADC1_Mode_Config) refers to stm32f10x_adc.o(i.ADC_ResetCalibration) for ADC_ResetCalibration
    adc.o(i.ADC1_Mode_Config) refers to stm32f10x_adc.o(i.ADC_GetResetCalibrationStatus) for ADC_GetResetCalibrationStatus
    adc.o(i.ADC1_Mode_Config) refers to stm32f10x_adc.o(i.ADC_StartCalibration) for ADC_StartCalibration
    adc.o(i.ADC1_Mode_Config) refers to stm32f10x_adc.o(i.ADC_GetCalibrationStatus) for ADC_GetCalibrationStatus
    adc.o(i.ADC1_Mode_Config) refers to stm32f10x_adc.o(i.ADC_SoftwareStartConvCmd) for ADC_SoftwareStartConvCmd
    adc.o(i.ADC1_Mode_Config) refers to adc.o(.data) for ADC_ConvertedValue
    adc.o(i.Voltage_Check) refers to fflti.o(.text) for __aeabi_i2f
    adc.o(i.Voltage_Check) refers to fmul.o(.text) for __aeabi_fmul
    adc.o(i.Voltage_Check) refers to fadd.o(.text) for __aeabi_fadd
    adc.o(i.Voltage_Check) refers to ffixi.o(.text) for __aeabi_f2iz
    adc.o(i.Voltage_Check) refers to adc.o(.data) for ADC_ConvertedValue
    adc.o(i.Voltage_Check) refers to init.o(.bss) for ALL_flag
    spi.o(i.SPI_Config) refers to stm32f10x_rcc.o(i.RCC_APB1PeriphClockCmd) for RCC_APB1PeriphClockCmd
    spi.o(i.SPI_Config) refers to stm32f10x_rcc.o(i.RCC_APB2PeriphClockCmd) for RCC_APB2PeriphClockCmd
    spi.o(i.SPI_Config) refers to stm32f10x_gpio.o(i.GPIO_SetBits) for GPIO_SetBits
    spi.o(i.SPI_Config) refers to stm32f10x_gpio.o(i.GPIO_Init) for GPIO_Init
    spi.o(i.SPI_Config) refers to stm32f10x_spi.o(i.SPI_Cmd) for SPI_Cmd
    spi.o(i.SPI_Config) refers to stm32f10x_spi.o(i.SPI_Init) for SPI_Init
    spi.o(i.SPI_RW) refers to stm32f10x_spi.o(i.SPI_I2S_GetFlagStatus) for SPI_I2S_GetFlagStatus
    spi.o(i.SPI_RW) refers to stm32f10x_spi.o(i.SPI_I2S_SendData) for SPI_I2S_SendData
    spi.o(i.SPI_RW) refers to stm32f10x_spi.o(i.SPI_I2S_ReceiveData) for SPI_I2S_ReceiveData
    usart3.o(i.USART1_setBaudRate) refers to stm32f10x_usart.o(i.USART_Init) for USART_Init
    usart3.o(i.USART3_Config) refers to stm32f10x_rcc.o(i.RCC_APB1PeriphClockCmd) for RCC_APB1PeriphClockCmd
    usart3.o(i.USART3_Config) refers to stm32f10x_rcc.o(i.RCC_APB2PeriphClockCmd) for RCC_APB2PeriphClockCmd
    usart3.o(i.USART3_Config) refers to stm32f10x_gpio.o(i.GPIO_Init) for GPIO_Init
    usart3.o(i.USART3_Config) refers to stm32f10x_usart.o(i.USART_Init) for USART_Init
    usart3.o(i.USART3_Config) refers to stm32f10x_usart.o(i.USART_ClockInit) for USART_ClockInit
    usart3.o(i.USART3_Config) refers to stm32f10x_usart.o(i.USART_ITConfig) for USART_ITConfig
    usart3.o(i.USART3_Config) refers to stm32f10x_usart.o(i.USART_Cmd) for USART_Cmd
    usart3.o(i.USART3_Config) refers to misc.o(i.NVIC_Init) for NVIC_Init
    usart3.o(i.USART3_Send1) refers to stm32f10x_usart.o(i.USART_SendData) for USART_SendData
    usart3.o(i.USART3_SendByte) refers to stm32f10x_usart.o(i.USART_SendData) for USART_SendData
    uart1.o(i.ANO_Uart1_Init) refers to stm32f10x_rcc.o(i.RCC_APB2PeriphClockCmd) for RCC_APB2PeriphClockCmd
    uart1.o(i.ANO_Uart1_Init) refers to stm32f10x_gpio.o(i.GPIO_Init) for GPIO_Init
    uart1.o(i.ANO_Uart1_Init) refers to stm32f10x_usart.o(i.USART_Init) for USART_Init
    uart1.o(i.ANO_Uart1_Init) refers to stm32f10x_usart.o(i.USART_ClockInit) for USART_ClockInit
    uart1.o(i.ANO_Uart1_Init) refers to stm32f10x_usart.o(i.USART_ITConfig) for USART_ITConfig
    uart1.o(i.ANO_Uart1_Init) refers to stm32f10x_usart.o(i.USART_Cmd) for USART_Cmd
    uart1.o(i.ANO_Uart1_Init) refers to misc.o(i.NVIC_Init) for NVIC_Init
    uart1.o(i.ANO_Uart1_Put_Buf) refers to stm32f10x_usart.o(i.USART_ITConfig) for USART_ITConfig
    uart1.o(i.ANO_Uart1_Put_Buf) refers to uart1.o(.data) for count
    uart1.o(i.ANO_Uart1_Put_Buf) refers to uart1.o(.bss) for TxBuffer
    uart1.o(i.ANO_Uart1_Put_Char) refers to stm32f10x_usart.o(i.USART_ITConfig) for USART_ITConfig
    uart1.o(i.ANO_Uart1_Put_Char) refers to uart1.o(.data) for count
    uart1.o(i.ANO_Uart1_Put_Char) refers to uart1.o(.bss) for TxBuffer
    uart1.o(i.ANO_Uart1_Put_String) refers to uart1.o(i.ANO_Uart1_Put_Char) for ANO_Uart1_Put_Char
    uart1.o(i.USART1_IRQHandler) refers to stm32f10x_usart.o(i.USART_GetFlagStatus) for USART_GetFlagStatus
    uart1.o(i.USART1_IRQHandler) refers to stm32f10x_usart.o(i.USART_ReceiveData) for USART_ReceiveData
    uart1.o(i.USART1_IRQHandler) refers to uart1.o(.data) for TxCounter
    uart1.o(i.USART1_IRQHandler) refers to uart1.o(.bss) for TxBuffer
    uart1.o(i.fputc) refers to stm32f10x_usart.o(i.USART_SendData) for USART_SendData
    uart1.o(i.fputc) refers to stm32f10x_usart.o(i.USART_GetFlagStatus) for USART_GetFlagStatus
    usart2.o(i.UART2_Init) refers to stm32f10x_rcc.o(i.RCC_APB1PeriphClockCmd) for RCC_APB1PeriphClockCmd
    usart2.o(i.UART2_Init) refers to stm32f10x_rcc.o(i.RCC_APB2PeriphClockCmd) for RCC_APB2PeriphClockCmd
    usart2.o(i.UART2_Init) refers to stm32f10x_gpio.o(i.GPIO_Init) for GPIO_Init
    usart2.o(i.UART2_Init) refers to stm32f10x_usart.o(i.USART_Init) for USART_Init
    usart2.o(i.UART2_Init) refers to stm32f10x_usart.o(i.USART_ClockInit) for USART_ClockInit
    usart2.o(i.UART2_Init) refers to stm32f10x_usart.o(i.USART_ITConfig) for USART_ITConfig
    usart2.o(i.UART2_Init) refers to stm32f10x_usart.o(i.USART_Cmd) for USART_Cmd
    usart2.o(i.UART2_Init) refers to misc.o(i.NVIC_Init) for NVIC_Init
    usart2.o(i.UART2_Put_Buf) refers to stm32f10x_usart.o(i.USART_ITConfig) for USART_ITConfig
    usart2.o(i.UART2_Put_Buf) refers to usart2.o(.data) for count2
    usart2.o(i.UART2_Put_Buf) refers to usart2.o(.bss) for TxBuffer2
    usart2.o(i.UART2_Put_Char) refers to stm32f10x_usart.o(i.USART_ITConfig) for USART_ITConfig
    usart2.o(i.UART2_Put_Char) refers to usart2.o(.data) for count2
    usart2.o(i.UART2_Put_Char) refers to usart2.o(.bss) for TxBuffer2
    usart2.o(i.UART2_Put_String) refers to usart2.o(i.UART2_Put_Char) for UART2_Put_Char
    usart2.o(i.USART2_IRQHandler) refers to usart2.o(.data) for TxCounter2
    usart2.o(i.USART2_IRQHandler) refers to usart2.o(.bss) for TxBuffer2
    led.o(i.LEDInit) refers to stm32f10x_rcc.o(i.RCC_APB2PeriphClockCmd) for RCC_APB2PeriphClockCmd
    led.o(i.LEDInit) refers to stm32f10x_gpio.o(i.GPIO_PinRemapConfig) for GPIO_PinRemapConfig
    led.o(i.LEDInit) refers to stm32f10x_gpio.o(i.GPIO_Init) for GPIO_Init
    led.o(i.PilotLED) refers to init.o(.data) for SysTick_count
    led.o(i.PilotLED) refers to led.o(.data) for LastTime
    nrf24l01.o(i.ANO_NRF_Check_Event) refers to nrf24l01.o(i.NRF24L01_Read_Reg) for NRF24L01_Read_Reg
    nrf24l01.o(i.ANO_NRF_Check_Event) refers to nrf24l01.o(i.NRF24L01_Read_Buf) for NRF24L01_Read_Buf
    nrf24l01.o(i.ANO_NRF_Check_Event) refers to nrf24l01.o(i.NRF24L01_Write_Reg) for NRF24L01_Write_Reg
    nrf24l01.o(i.ANO_NRF_Check_Event) refers to nrf24l01.o(.bss) for NRF24L01_2_RXDATA
    nrf24l01.o(i.ANO_NRF_Check_Event) refers to nrf24l01.o(.data) for Nrf_Erro
    nrf24l01.o(i.ANO_NRF_Init) refers to nrf24l01.o(i.NRF24L01_Write_Buf) for NRF24L01_Write_Buf
    nrf24l01.o(i.ANO_NRF_Init) refers to nrf24l01.o(i.NRF24L01_Write_Reg) for NRF24L01_Write_Reg
    nrf24l01.o(i.ANO_NRF_Init) refers to spi.o(i.SPI_RW) for SPI_RW
    nrf24l01.o(i.ANO_NRF_Init) refers to nrf24l01.o(.constdata) for RX_ADDRESS
    nrf24l01.o(i.ANO_NRF_TxPacket_AP) refers to nrf24l01.o(i.NRF24L01_Write_Buf) for NRF24L01_Write_Buf
    nrf24l01.o(i.NRF24L01_Check) refers to nrf24l01.o(i.NRF24L01_Write_Buf) for NRF24L01_Write_Buf
    nrf24l01.o(i.NRF24L01_Check) refers to nrf24l01.o(i.NRF24L01_Read_Buf) for NRF24L01_Read_Buf
    nrf24l01.o(i.NRF24L01_Configuration) refers to stm32f10x_rcc.o(i.RCC_APB2PeriphClockCmd) for RCC_APB2PeriphClockCmd
    nrf24l01.o(i.NRF24L01_Configuration) refers to stm32f10x_gpio.o(i.GPIO_Init) for GPIO_Init
    nrf24l01.o(i.NRF24L01_Configuration) refers to spi.o(i.SPI_Config) for SPI_Config
    nrf24l01.o(i.NRF24L01_Read_Buf) refers to spi.o(i.SPI_RW) for SPI_RW
    nrf24l01.o(i.NRF24L01_Read_Reg) refers to spi.o(i.SPI_RW) for SPI_RW
    nrf24l01.o(i.NRF24L01_RxPacket) refers to nrf24l01.o(i.NRF24L01_Read_Reg) for NRF24L01_Read_Reg
    nrf24l01.o(i.NRF24L01_RxPacket) refers to nrf24l01.o(i.NRF24L01_Write_Reg) for NRF24L01_Write_Reg
    nrf24l01.o(i.NRF24L01_RxPacket) refers to nrf24l01.o(i.NRF24L01_Read_Buf) for NRF24L01_Read_Buf
    nrf24l01.o(i.NRF24L01_TxPacket) refers to nrf24l01.o(i.NRF24L01_Write_Buf) for NRF24L01_Write_Buf
    nrf24l01.o(i.NRF24L01_TxPacket) refers to nrf24l01.o(i.NRF24L01_Read_Reg) for NRF24L01_Read_Reg
    nrf24l01.o(i.NRF24L01_TxPacket) refers to nrf24l01.o(i.NRF24L01_Write_Reg) for NRF24L01_Write_Reg
    nrf24l01.o(i.NRF24L01_Write_Buf) refers to spi.o(i.SPI_RW) for SPI_RW
    nrf24l01.o(i.NRF24L01_Write_Reg) refers to spi.o(i.SPI_RW) for SPI_RW
    nrf24l01.o(i.NRF24L01_init) refers to nrf24l01.o(i.NRF24L01_Configuration) for NRF24L01_Configuration
    nrf24l01.o(i.NRF24L01_init) refers to init.o(i.GetLockCode) for GetLockCode
    nrf24l01.o(i.NRF24L01_init) refers to nrf24l01.o(i.ANO_NRF_Init) for ANO_NRF_Init
    nrf24l01.o(i.NRF24L01_init) refers to nrf24l01.o(i.NRF24L01_Check) for NRF24L01_Check
    nrf24l01.o(i.NRF24L01_init) refers to init.o(.data) for ST_CpuID
    nrf24l01.o(i.NRF24L01_init) refers to nrf24l01.o(.data) for _CH
    nrf24l01.o(i.NRF_Connect) refers to ano_dt.o(i.ANO_DT_Data_Receive_Anl) for ANO_DT_Data_Receive_Anl
    nrf24l01.o(i.NRF_Connect) refers to nrf24l01.o(.data) for Nrf_Erro
    nrf24l01.o(i.NRF_Connect) refers to nrf24l01.o(.bss) for NRF24L01_2_RXDATA
    nrf24l01.o(i.RX_Mode) refers to nrf24l01.o(i.NRF24L01_Write_Buf) for NRF24L01_Write_Buf
    nrf24l01.o(i.RX_Mode) refers to nrf24l01.o(i.NRF24L01_Write_Reg) for NRF24L01_Write_Reg
    nrf24l01.o(i.RX_Mode) refers to nrf24l01.o(.constdata) for RX_ADDRESS
    nrf24l01.o(i.TX_Mode) refers to nrf24l01.o(i.NRF24L01_Write_Buf) for NRF24L01_Write_Buf
    nrf24l01.o(i.TX_Mode) refers to nrf24l01.o(i.NRF24L01_Write_Reg) for NRF24L01_Write_Reg
    nrf24l01.o(i.TX_Mode) refers to nrf24l01.o(.constdata) for TX_ADDRESS
    mpu6050.o(i.MpuGetData) refers to iic_software.o(i.IIC_read_Bytes) for IIC_read_Bytes
    mpu6050.o(i.MpuGetData) refers to fflti.o(.text) for __aeabi_i2f
    mpu6050.o(i.MpuGetData) refers to kalman.o(i.kalman_1) for kalman_1
    mpu6050.o(i.MpuGetData) refers to ffixi.o(.text) for __aeabi_f2iz
    mpu6050.o(i.MpuGetData) refers to fmul.o(.text) for __aeabi_fmul
    mpu6050.o(i.MpuGetData) refers to fadd.o(.text) for __aeabi_fadd
    mpu6050.o(i.MpuGetData) refers to mpu6050.o(.bss) for MpuOffset
    mpu6050.o(i.MpuGetData) refers to mpu6050.o(.data) for pMpu
    mpu6050.o(i.MpuGetOffset) refers to memseta.o(.text) for __aeabi_memclr4
    mpu6050.o(i.MpuGetOffset) refers to stm32f10x_tim.o(i.TIM_ITConfig) for TIM_ITConfig
    mpu6050.o(i.MpuGetOffset) refers to delay.o(i.delay_ms) for delay_ms
    mpu6050.o(i.MpuGetOffset) refers to mpu6050.o(i.MpuGetData) for MpuGetData
    mpu6050.o(i.MpuGetOffset) refers to mpu6050.o(.bss) for MpuOffset
    mpu6050.o(i.MpuGetOffset) refers to mpu6050.o(.data) for pMpu
    mpu6050.o(i.MpuInit) refers to iic_software.o(i.IIC_Write_One_Byte) for IIC_Write_One_Byte
    mpu6050.o(i.MpuInit) refers to delay.o(i.delay_ms) for delay_ms
    mpu6050.o(i.MpuInit) refers to iic_software.o(i.IIC_Read_One_Byte) for IIC_Read_One_Byte
    mpu6050.o(i.MpuInit) refers to mpu6050.o(i.MpuGetOffset) for MpuGetOffset
    mpu6050.o(i.MpuInit) refers to nrf24l01.o(.data) for MPU_Err
    mpu6050.o(i.mpu6050_rest) refers to iic_software.o(i.IIC_Write_One_Byte) for IIC_Write_One_Byte
    mpu6050.o(i.mpu6050_rest) refers to delay.o(i.delay_ms) for delay_ms
    mpu6050.o(.data) refers to init.o(.bss) for MPU6050
    ano_dt.o(i.ANO_DT_Data_Receive_Anl) refers to init.o(i.pid_param_Init) for pid_param_Init
    ano_dt.o(i.ANO_DT_Data_Receive_Anl) refers to memcpya.o(.text) for __aeabi_memcpy
    ano_dt.o(i.ANO_DT_Data_Receive_Anl) refers to ano_dt.o(i.ANO_DT_Send_Check) for ANO_DT_Send_Check
    ano_dt.o(i.ANO_DT_Data_Receive_Anl) refers to ano_dt.o(.data) for ANTO_Recived_flag
    ano_dt.o(i.ANO_DT_Data_Receive_Anl) refers to ano_data_transfer.o(.bss) for f
    ano_dt.o(i.ANO_DT_Data_Receive_Anl) refers to ano_data_transfer.o(.data) for cnt
    ano_dt.o(i.ANO_DT_Data_Receive_Anl) refers to init.o(.bss) for Remote
    ano_dt.o(i.ANO_DT_Data_Receive_Anl) refers to ano_dt.o(.bss) for RatePID
    ano_dt.o(i.ANO_DT_Data_Receive_Prepare) refers to ano_dt.o(i.ANO_DT_Data_Receive_Anl) for ANO_DT_Data_Receive_Anl
    ano_dt.o(i.ANO_DT_Data_Receive_Prepare) refers to ano_dt.o(.data) for state
    ano_dt.o(i.ANO_DT_Data_Receive_Prepare) refers to ano_dt.o(.bss) for RxBuffer
    ano_dt.o(i.ANO_DT_Send_Check) refers to usart3.o(i.USART3_SendByte) for USART3_SendByte
    ano_dt.o(i.ANO_DT_Send_Check) refers to ano_dt.o(.data) for CheckSend
    ano_dt.o(i.ANO_DT_Send_Check) refers to ano_data_transfer.o(.bss) for data_to_send
    ano_dt.o(i.ANO_DT_Send_Check) refers to ano_data_transfer.o(.data) for Send_Check
    ano_dt.o(i.ANO_Recive) refers to memcpya.o(.text) for __aeabi_memcpy
    ano_dt.o(i.ANO_Recive) refers to ano_dt.o(.data) for ANTO_Recived_flag
    ano_dt.o(i.ANO_Recive) refers to ano_dt.o(.bss) for RatePID
    ano_dt.o(i.ANTO_Send) refers to fmul.o(.text) for __aeabi_fmul
    ano_dt.o(i.ANTO_Send) refers to ffixi.o(.text) for __aeabi_f2iz
    ano_dt.o(i.ANTO_Send) refers to ffixui.o(.text) for __aeabi_f2uiz
    ano_dt.o(i.ANTO_Send) refers to usart3.o(i.USART3_SendByte) for USART3_SendByte
    ano_dt.o(i.ANTO_Send) refers to init.o(.bss) for pidRateX
    ano_dt.o(i.ANTO_Send) refers to init.o(.data) for AK8975
    ano_dt.o(i.ANTO_polling) refers to ano_dt.o(i.ANTO_Send) for ANTO_Send
    ano_dt.o(i.ANTO_polling) refers to delay.o(i.delay_ms) for delay_ms
    ano_dt.o(i.ANTO_polling) refers to ffltui.o(.text) for __aeabi_ui2f
    ano_dt.o(i.ANTO_polling) refers to fdiv.o(.text) for __aeabi_fdiv
    ano_dt.o(i.ANTO_polling) refers to ano_dt.o(.data) for status
    ano_dt.o(i.ANTO_polling) refers to init.o(.bss) for pidRateX
    ano_dt.o(i.ANTO_polling) refers to ano_dt.o(.bss) for RatePID
    ano_dt.o(i.USART3_IRQHandler) refers to ano_dt.o(i.ANO_DT_Data_Receive_Prepare) for ANO_DT_Data_Receive_Prepare
    ano_dt.o(i.USART3_IRQHandler) refers to ano_dt.o(.data) for TxCounter3
    ano_dt.o(i.USART3_IRQHandler) refers to ano_dt.o(.bss) for TxBuffer3
    remote.o(i.RC_Analy) refers to fflti.o(.text) for __aeabi_i2f
    remote.o(i.RC_Analy) refers to fmul.o(.text) for __aeabi_fmul
    remote.o(i.RC_Analy) refers to fadd.o(.text) for __aeabi_fsub
    remote.o(i.RC_Analy) refers to remote.o(i.remote_unlock) for remote_unlock
    remote.o(i.RC_Analy) refers to nrf24l01.o(i.NRF24L01_init) for NRF24L01_init
    remote.o(i.RC_Analy) refers to nrf24l01.o(.data) for Nrf_Erro
    remote.o(i.RC_Analy) refers to wifi_ufo.o(.data) for WIFI_UFO_Err
    remote.o(i.RC_Analy) refers to init.o(.bss) for Remote
    remote.o(i.RC_Analy) refers to remote.o(.data) for cnt
    remote.o(i.RC_Analy) refers to led.o(.data) for LED
    remote.o(i.Rc_Connect) refers to nrf24l01.o(i.NRF_Connect) for NRF_Connect
    remote.o(i.Rc_Connect) refers to wifi_ufo.o(i.WIFI_UFO_Connect) for WIFI_UFO_Connect
    remote.o(i.remote_unlock) refers to init.o(.bss) for Remote
    remote.o(i.remote_unlock) refers to remote.o(.data) for status
    remote.o(i.remote_unlock) refers to led.o(.data) for LED
    control.o(i.FlightPidControl) refers to pid.o(i.pidRest) for pidRest
    control.o(i.FlightPidControl) refers to fflti.o(.text) for __aeabi_i2f
    control.o(i.FlightPidControl) refers to fmul.o(.text) for __aeabi_fmul
    control.o(i.FlightPidControl) refers to pid.o(i.pidUpdate) for pidUpdate
    control.o(i.FlightPidControl) refers to pid.o(i.CascadePID) for CascadePID
    control.o(i.FlightPidControl) refers to control.o(.data) for status
    control.o(i.FlightPidControl) refers to init.o(.bss) for ALL_flag
    control.o(i.FlightPidControl) refers to mymath.o(.constdata) for Gyro_G
    control.o(i.MotorControl) refers to fadd.o(.text) for __aeabi_fsub
    control.o(i.MotorControl) refers to fflti.o(.text) for __aeabi_i2f
    control.o(i.MotorControl) refers to ffixi.o(.text) for __aeabi_f2iz
    control.o(i.MotorControl) refers to init.o(.bss) for ALL_flag
    control.o(i.MotorControl) refers to control.o(.data) for status
    control.o(.data) refers to init.o(.bss) for pidRateX
    wifi_ufo.o(i.Key_Function) refers to init.o(.bss) for Remote
    wifi_ufo.o(i.Key_Function) refers to wifi_ufo.o(.data) for temp
    wifi_ufo.o(i.WIFI_UFO_Connect) refers to wifi_ufo.o(i.WIFI_UFO_Data_Receive_Anl) for WIFI_UFO_Data_Receive_Anl
    wifi_ufo.o(i.WIFI_UFO_Connect) refers to wifi_ufo.o(.data) for WIFI_UFO_Err
    wifi_ufo.o(i.WIFI_UFO_Connect) refers to ano_dt.o(.data) for flag
    wifi_ufo.o(i.WIFI_UFO_Data_Receive_Anl) refers to ffltui.o(.text) for __aeabi_ui2f
    wifi_ufo.o(i.WIFI_UFO_Data_Receive_Anl) refers to fdiv.o(.text) for __aeabi_fdiv
    wifi_ufo.o(i.WIFI_UFO_Data_Receive_Anl) refers to fmul.o(.text) for __aeabi_fmul
    wifi_ufo.o(i.WIFI_UFO_Data_Receive_Anl) refers to fadd.o(.text) for __aeabi_fadd
    wifi_ufo.o(i.WIFI_UFO_Data_Receive_Anl) refers to ffixui.o(.text) for __aeabi_f2uiz
    wifi_ufo.o(i.WIFI_UFO_Data_Receive_Anl) refers to f2d.o(.text) for __aeabi_f2d
    wifi_ufo.o(i.WIFI_UFO_Data_Receive_Anl) refers to dmul.o(.text) for __aeabi_dmul
    wifi_ufo.o(i.WIFI_UFO_Data_Receive_Anl) refers to dadd.o(.text) for __aeabi_dadd
    wifi_ufo.o(i.WIFI_UFO_Data_Receive_Anl) refers to dfixui.o(.text) for __aeabi_d2uiz
    wifi_ufo.o(i.WIFI_UFO_Data_Receive_Anl) refers to wifi_ufo.o(i.Key_Function) for Key_Function
    wifi_ufo.o(i.WIFI_UFO_Data_Receive_Anl) refers to ano_dt.o(.data) for flag
    wifi_ufo.o(i.WIFI_UFO_Data_Receive_Anl) refers to init.o(.bss) for Remote
    wifi_ufo.o(i.WIFI_UFO_Data_Receive_Anl) refers to wifi_ufo.o(.data) for wifi_RxBuffer22
    wifi_ufo.o(i.WIFI_UFO_Data_Receive_Prepare) refers to wifi_ufo.o(.data) for state
    ano_data_transfer.o(i.ANO_DT_Data_Exchange) refers to ano_data_transfer.o(i.ANO_DT_Send_Data) for ANO_DT_Send_Data
    ano_data_transfer.o(i.ANO_DT_Data_Exchange) refers to fmul.o(.text) for __aeabi_fmul
    ano_data_transfer.o(i.ANO_DT_Data_Exchange) refers to ffixi.o(.text) for __aeabi_f2iz
    ano_data_transfer.o(i.ANO_DT_Data_Exchange) refers to ano_data_transfer.o(i.ANO_DT_Send_PID) for ANO_DT_Send_PID
    ano_data_transfer.o(i.ANO_DT_Data_Exchange) refers to ano_data_transfer.o(.data) for Send_Check
    ano_data_transfer.o(i.ANO_DT_Data_Exchange) refers to ano_data_transfer.o(.bss) for data_to_send
    ano_data_transfer.o(i.ANO_DT_Data_Exchange) refers to init.o(.bss) for pidRateZ
    ano_data_transfer.o(i.ANO_DT_Data_Exchange) refers to ano_data_transfer.o(i.ANO_DT_Send_Status) for ANO_DT_Send_Status
    ano_data_transfer.o(i.ANO_DT_Data_Exchange) refers to ano_data_transfer.o(i.ANO_DT_Send_Senser) for ANO_DT_Send_Senser
    ano_data_transfer.o(i.ANO_DT_Data_Exchange) refers to ano_data_transfer.o(i.ANO_DT_Send_RCData) for ANO_DT_Send_RCData
    ano_data_transfer.o(i.ANO_DT_Data_Exchange) refers to ano_data_transfer.o(i.ANO_DT_Send_Power) for ANO_DT_Send_Power
    ano_data_transfer.o(i.ANO_DT_Data_Exchange) refers to ano_data_transfer.o(i.ANO_DT_Send_Senser2) for ANO_DT_Send_Senser2
    ano_data_transfer.o(i.ANO_DT_Data_Exchange) refers to ano_data_transfer.o(i.ANO_DT_Send_speed) for ANO_DT_Send_speed
    ano_data_transfer.o(i.ANO_DT_Data_Exchange) refers to nrf24l01.o(.data) for NRF_SSI
    ano_data_transfer.o(i.ANO_DT_Data_Exchange) refers to adc.o(.data) for voltage
    ano_data_transfer.o(i.ANO_DT_Data_Exchange) refers to remote.o(.data) for set_flag
    ano_data_transfer.o(i.ANO_DT_Send_Data) refers to nrf24l01.o(i.ANO_NRF_TxPacket_AP) for ANO_NRF_TxPacket_AP
    ano_data_transfer.o(i.ANO_DT_Send_Location) refers to ano_data_transfer.o(i.ANO_DT_Send_Data) for ANO_DT_Send_Data
    ano_data_transfer.o(i.ANO_DT_Send_Location) refers to ano_data_transfer.o(.bss) for data_to_send
    ano_data_transfer.o(i.ANO_DT_Send_MotoPWM) refers to ano_data_transfer.o(i.ANO_DT_Send_Data) for ANO_DT_Send_Data
    ano_data_transfer.o(i.ANO_DT_Send_MotoPWM) refers to ano_data_transfer.o(.bss) for data_to_send
    ano_data_transfer.o(i.ANO_DT_Send_PID) refers to ano_data_transfer.o(i.ANO_DT_Send_Data) for ANO_DT_Send_Data
    ano_data_transfer.o(i.ANO_DT_Send_PID) refers to ano_data_transfer.o(.bss) for data_to_send
    ano_data_transfer.o(i.ANO_DT_Send_Power) refers to ano_data_transfer.o(i.ANO_DT_Send_Data) for ANO_DT_Send_Data
    ano_data_transfer.o(i.ANO_DT_Send_Power) refers to ano_data_transfer.o(.bss) for data_to_send
    ano_data_transfer.o(i.ANO_DT_Send_RCData) refers to ano_data_transfer.o(i.ANO_DT_Send_Data) for ANO_DT_Send_Data
    ano_data_transfer.o(i.ANO_DT_Send_RCData) refers to ano_data_transfer.o(.bss) for data_to_send
    ano_data_transfer.o(i.ANO_DT_Send_Senser) refers to ano_data_transfer.o(i.ANO_DT_Send_Data) for ANO_DT_Send_Data
    ano_data_transfer.o(i.ANO_DT_Send_Senser) refers to ano_data_transfer.o(.bss) for data_to_send
    ano_data_transfer.o(i.ANO_DT_Send_Senser2) refers to ano_data_transfer.o(i.ANO_DT_Send_Data) for ANO_DT_Send_Data
    ano_data_transfer.o(i.ANO_DT_Send_Senser2) refers to ano_data_transfer.o(.bss) for data_to_send
    ano_data_transfer.o(i.ANO_DT_Send_Speed) refers to fmul.o(.text) for __aeabi_fmul
    ano_data_transfer.o(i.ANO_DT_Send_Speed) refers to ffixi.o(.text) for __aeabi_f2iz
    ano_data_transfer.o(i.ANO_DT_Send_Speed) refers to ano_data_transfer.o(i.ANO_DT_Send_Data) for ANO_DT_Send_Data
    ano_data_transfer.o(i.ANO_DT_Send_Speed) refers to ano_data_transfer.o(.bss) for data_to_send
    ano_data_transfer.o(i.ANO_DT_Send_Status) refers to fmul.o(.text) for __aeabi_fmul
    ano_data_transfer.o(i.ANO_DT_Send_Status) refers to ffixi.o(.text) for __aeabi_f2iz
    ano_data_transfer.o(i.ANO_DT_Send_Status) refers to ano_data_transfer.o(i.ANO_DT_Send_Data) for ANO_DT_Send_Data
    ano_data_transfer.o(i.ANO_DT_Send_Status) refers to ano_data_transfer.o(.bss) for data_to_send
    ano_data_transfer.o(i.ANO_DT_Send_Version) refers to ano_data_transfer.o(i.ANO_DT_Send_Data) for ANO_DT_Send_Data
    ano_data_transfer.o(i.ANO_DT_Send_Version) refers to ano_data_transfer.o(.bss) for data_to_send
    ano_data_transfer.o(i.ANO_DT_Send_speed) refers to ano_data_transfer.o(i.ANO_DT_Send_Data) for ANO_DT_Send_Data
    ano_data_transfer.o(i.ANO_DT_Send_speed) refers to ano_data_transfer.o(.bss) for data_to_send
    ano_data_transfer.o(i.Flag_Check) refers to remote.o(.data) for test_flag
    ano_data_transfer.o(i.Flag_Check) refers to nrf24l01.o(.data) for MPU_Err
    ano_data_transfer.o(i.Flag_Check) refers to ano_data_transfer.o(.data) for ult_ok
    ano_data_transfer.o(i.Flag_Check) refers to led.o(.data) for LED_warn
    filter.o(i.IIR_I_Filter) refers to fmul.o(.text) for __aeabi_fmul
    filter.o(i.IIR_I_Filter) refers to fadd.o(.text) for __aeabi_fadd
    filter.o(i.LPF_1_Filter_1) refers to fmul.o(.text) for __aeabi_fmul
    filter.o(i.LPF_1_Filter_1) refers to fadd.o(.text) for __aeabi_fsub
    filter.o(i.LPF_1_Filter_2) refers to fadd.o(.text) for __aeabi_fsub
    filter.o(i.LPF_1_Filter_2) refers to fmul.o(.text) for __aeabi_fmul
    filter.o(i.LPF_1_Filter_2) refers to fdiv.o(.text) for __aeabi_fdiv
    filter.o(i.MovMiddle) refers to memcpya.o(.text) for __aeabi_memcpy
    filter.o(i.MovMiddle) refers to filter.o(.bss) for middle
    filter.o(i.Moving_Average) refers to ffltui.o(.text) for __aeabi_ui2f
    filter.o(i.Moving_Average) refers to fadd.o(.text) for __aeabi_fsub
    filter.o(i.Moving_Average) refers to fdiv.o(.text) for __aeabi_fdiv
    filter.o(i.Moving_Average) refers to cfcmple.o(.text) for __aeabi_cfcmple
    filter.o(i.Moving_Average) refers to cfrcmple.o(.text) for __aeabi_cfrcmple
    filter.o(i.Moving_Average) refers to fmul.o(.text) for __aeabi_fmul
    filter.o(i.Moving_Median) refers to cfrcmple.o(.text) for __aeabi_cfrcmple
    filter.o(i.Moving_Median) refers to filter.o(.data) for med_fil_cnt
    filter.o(i.Moving_Median) refers to filter.o(.bss) for med_filter_tmp
    kalman.o(i.KalmanFilter) refers to kalman.o(i.matrix_add) for matrix_add
    kalman.o(i.KalmanFilter) refers to kalman.o(i.matrix_sub) for matrix_sub
    kalman.o(i.KalmanFilter) refers to fmul.o(.text) for __aeabi_fmul
    kalman.o(i.KalmanFilter) refers to fadd.o(.text) for __aeabi_fadd
    kalman.o(i.KalmanFilter) refers to fdiv.o(.text) for __aeabi_fdiv
    kalman.o(i.KalmanFilter) refers to kalman.o(i.matrix_multi) for matrix_multi
    kalman.o(i.KalmanFilter) refers to kalman.o(.bss) for xk
    kalman.o(i.KalmanFilter) refers to kalman.o(.data) for pk
    kalman.o(i.kalman1_filter) refers to fmul.o(.text) for __aeabi_fmul
    kalman.o(i.kalman1_filter) refers to fadd.o(.text) for __aeabi_fadd
    kalman.o(i.kalman1_filter) refers to fdiv.o(.text) for __aeabi_fdiv
    kalman.o(i.kalman2_filter) refers to fmul.o(.text) for __aeabi_fmul
    kalman.o(i.kalman2_filter) refers to fadd.o(.text) for __aeabi_fadd
    kalman.o(i.kalman2_filter) refers to fdiv.o(.text) for __aeabi_fdiv
    kalman.o(i.kalman_1) refers to fadd.o(.text) for __aeabi_fadd
    kalman.o(i.kalman_1) refers to fdiv.o(.text) for __aeabi_fdiv
    kalman.o(i.kalman_1) refers to fmul.o(.text) for __aeabi_fmul
    kalman.o(i.kalman_2_Update) refers to fadd.o(.text) for __aeabi_fsub
    kalman.o(i.kalman_2_Update) refers to fmul.o(.text) for __aeabi_fmul
    kalman.o(i.kalman_2_Update) refers to fdiv.o(.text) for __aeabi_fdiv
    kalman.o(i.kalman_2_Update) refers to kalman.o(.data) for Q_bias
    kalman.o(i.kalman_2_Update) refers to kalman.o(.bss) for X
    kalman.o(i.matrix_add) refers to fadd.o(.text) for __aeabi_fadd
    kalman.o(i.matrix_multi) refers to fmul.o(.text) for __aeabi_fmul
    kalman.o(i.matrix_multi) refers to fadd.o(.text) for __aeabi_fadd
    kalman.o(i.matrix_sub) refers to fadd.o(.text) for __aeabi_fsub
    imu.o(i.GetAccz) refers to imu.o(.data) for NormAccz
    imu.o(i.GetAngle) refers to fmul.o(.text) for __aeabi_fmul
    imu.o(i.GetAngle) refers to fadd.o(.text) for __aeabi_fsub
    imu.o(i.GetAngle) refers to fflti.o(.text) for __aeabi_i2f
    imu.o(i.GetAngle) refers to mymath.o(i.Q_rsqrt) for Q_rsqrt
    imu.o(i.GetAngle) refers to imu.o(.data) for NumQ
    imu.o(i.GetAngle) refers to init.o(.bss) for MPU6050
    imu.o(i.GetAngle) refers to imu.o(.bss) for GyroIntegError
    imu.o(i.GetAngle) refers to mymath.o(.constdata) for Gyro_Gr
    imu.o(i.GetAngle) refers to cfrcmple.o(.text) for __aeabi_cfrcmple
    imu.o(i.GetAngle) refers to cfcmple.o(.text) for __aeabi_cfcmple
    imu.o(i.GetAngle) refers to f2d.o(.text) for __aeabi_f2d
    imu.o(i.GetAngle) refers to asin.o(i.asin) for asin
    imu.o(i.GetAngle) refers to dmul.o(.text) for __aeabi_dmul
    imu.o(i.GetAngle) refers to d2f.o(.text) for __aeabi_d2f
    imu.o(i.GetAngle) refers to atan2f.o(i.atan2f) for atan2f
    mymath.o(i.Q_rsqrt) refers to fmul.o(.text) for __aeabi_fmul
    mymath.o(i.Q_rsqrt) refers to fadd.o(.text) for __aeabi_frsub
    mymath.o(i.VariableParameter) refers to cfcmple.o(.text) for __aeabi_cfcmple
    mymath.o(i.VariableParameter) refers to cfrcmple.o(.text) for __aeabi_cfrcmple
    mymath.o(i.VariableParameter) refers to fmul.o(.text) for __aeabi_fmul
    mymath.o(i.VariableParameter) refers to fadd.o(.text) for __aeabi_frsub
    mymath.o(i.arcsin) refers to fmul.o(.text) for __aeabi_fmul
    mymath.o(i.arcsin) refers to cfrcmple.o(.text) for __aeabi_cfrcmple
    mymath.o(i.arcsin) refers to cfcmple.o(.text) for __aeabi_cfcmple
    mymath.o(i.arcsin) refers to fflti.o(.text) for __aeabi_i2f
    mymath.o(i.arcsin) refers to fdiv.o(.text) for __aeabi_fdiv
    mymath.o(i.arcsin) refers to fadd.o(.text) for __aeabi_fadd
    mymath.o(i.arctan) refers to fmul.o(.text) for __aeabi_fmul
    mymath.o(i.arctan) refers to fflti.o(.text) for __aeabi_i2f
    mymath.o(i.arctan) refers to fdiv.o(.text) for __aeabi_fdiv
    mymath.o(i.arctan) refers to fadd.o(.text) for __aeabi_fadd
    mymath.o(i.cosine) refers to fadd.o(.text) for __aeabi_fadd
    mymath.o(i.cosine) refers to mymath.o(i.sine) for sine
    mymath.o(i.data_limit) refers to cfrcmple.o(.text) for __aeabi_cfrcmple
    mymath.o(i.data_limit) refers to cfcmple.o(.text) for __aeabi_cfcmple
    mymath.o(i.middle_3) refers to fflti.o(.text) for __aeabi_i2f
    mymath.o(i.my_deathzoom) refers to cfrcmple.o(.text) for __aeabi_cfrcmple
    mymath.o(i.my_deathzoom) refers to fadd.o(.text) for __aeabi_fsub
    mymath.o(i.my_deathzoom) refers to cfcmple.o(.text) for __aeabi_cfcmple
    mymath.o(i.my_deathzoom_2) refers to cfcmple.o(.text) for __aeabi_cfcmple
    mymath.o(i.safe_asin) refers to cfrcmple.o(.text) for __aeabi_cfrcmple
    mymath.o(i.safe_asin) refers to cfcmple.o(.text) for __aeabi_cfcmple
    mymath.o(i.safe_asin) refers to asinf.o(i.asinf) for asinf
    mymath.o(i.sine) refers to f2d.o(.text) for __aeabi_f2d
    mymath.o(i.sine) refers to fmul.o(.text) for __aeabi_fmul
    mymath.o(i.sine) refers to dmul.o(.text) for __aeabi_dmul
    mymath.o(i.sine) refers to dadd.o(.text) for __aeabi_dadd
    mymath.o(i.sine) refers to d2f.o(.text) for __aeabi_d2f
    pid.o(i.CascadePID) refers to pid.o(i.pidUpdate) for pidUpdate
    pid.o(i.pidUpdate) refers to fadd.o(.text) for __aeabi_fsub
    pid.o(i.pidUpdate) refers to fmul.o(.text) for __aeabi_fmul
    pid.o(i.pidUpdate) refers to fdiv.o(.text) for __aeabi_fdiv
    asin.o(i.__softfp_asin) refers (Special) to iusefp.o(.text) for __I$use$fp
    asin.o(i.__softfp_asin) refers to asin.o(i.asin) for asin
    asin.o(i.asin) refers (Special) to iusefp.o(.text) for __I$use$fp
    asin.o(i.asin) refers to dunder.o(i.__mathlib_dbl_infnan) for __mathlib_dbl_infnan
    asin.o(i.asin) refers to dmul.o(.text) for __aeabi_dmul
    asin.o(i.asin) refers to dadd.o(.text) for __aeabi_dadd
    asin.o(i.asin) refers to errno.o(i.__set_errno) for __set_errno
    asin.o(i.asin) refers to dunder.o(i.__mathlib_dbl_invalid) for __mathlib_dbl_invalid
    asin.o(i.asin) refers to fpclassify.o(i.__ARM_fpclassify) for __ARM_fpclassify
    asin.o(i.asin) refers to dunder.o(i.__mathlib_dbl_underflow) for __mathlib_dbl_underflow
    asin.o(i.asin) refers to poly.o(i.__kernel_poly) for __kernel_poly
    asin.o(i.asin) refers to ddiv.o(.text) for __aeabi_ddiv
    asin.o(i.asin) refers to dscalb.o(.text) for __ARM_scalbn
    asin.o(i.asin) refers to sqrt.o(i.sqrt) for sqrt
    asin.o(i.asin) refers to asin.o(.constdata) for .constdata
    asin.o(.constdata) refers (Special) to iusefp.o(.text) for __I$use$fp
    asin_x.o(i.____softfp_asin$lsc) refers (Special) to iusefp.o(.text) for __I$use$fp
    asin_x.o(i.____softfp_asin$lsc) refers to asin_x.o(i.__asin$lsc) for __asin$lsc
    asin_x.o(i.__asin$lsc) refers (Special) to iusefp.o(.text) for __I$use$fp
    asin_x.o(i.__asin$lsc) refers to dunder.o(i.__mathlib_dbl_infnan) for __mathlib_dbl_infnan
    asin_x.o(i.__asin$lsc) refers to dmul.o(.text) for __aeabi_dmul
    asin_x.o(i.__asin$lsc) refers to dadd.o(.text) for __aeabi_dadd
    asin_x.o(i.__asin$lsc) refers to errno.o(i.__set_errno) for __set_errno
    asin_x.o(i.__asin$lsc) refers to poly.o(i.__kernel_poly) for __kernel_poly
    asin_x.o(i.__asin$lsc) refers to ddiv.o(.text) for __aeabi_ddiv
    asin_x.o(i.__asin$lsc) refers to dscalb.o(.text) for __ARM_scalbn
    asin_x.o(i.__asin$lsc) refers to sqrt.o(i.sqrt) for sqrt
    asin_x.o(i.__asin$lsc) refers to asin_x.o(.constdata) for .constdata
    asin_x.o(.constdata) refers (Special) to iusefp.o(.text) for __I$use$fp
    asinf.o(i.__softfp_asinf) refers (Special) to iusefp.o(.text) for __I$use$fp
    asinf.o(i.__softfp_asinf) refers to asinf.o(i.asinf) for asinf
    asinf.o(i.asinf) refers (Special) to iusefp.o(.text) for __I$use$fp
    asinf.o(i.asinf) refers to fadd.o(.text) for __aeabi_frsub
    asinf.o(i.asinf) refers to fscalb.o(.text) for __ARM_scalbnf
    asinf.o(i.asinf) refers to sqrtf.o(i.sqrtf) for sqrtf
    asinf.o(i.asinf) refers to fmul.o(.text) for __aeabi_fmul
    asinf.o(i.asinf) refers to fpclassifyf.o(i.__ARM_fpclassifyf) for __ARM_fpclassifyf
    asinf.o(i.asinf) refers to funder.o(i.__mathlib_flt_underflow) for __mathlib_flt_underflow
    asinf.o(i.asinf) refers to funder.o(i.__mathlib_flt_infnan) for __mathlib_flt_infnan
    asinf.o(i.asinf) refers to errno.o(i.__set_errno) for __set_errno
    asinf.o(i.asinf) refers to funder.o(i.__mathlib_flt_invalid) for __mathlib_flt_invalid
    asinf_x.o(i.____softfp_asinf$lsc) refers (Special) to iusefp.o(.text) for __I$use$fp
    asinf_x.o(i.____softfp_asinf$lsc) refers to asinf_x.o(i.__asinf$lsc) for __asinf$lsc
    asinf_x.o(i.__asinf$lsc) refers (Special) to iusefp.o(.text) for __I$use$fp
    asinf_x.o(i.__asinf$lsc) refers to fadd.o(.text) for __aeabi_frsub
    asinf_x.o(i.__asinf$lsc) refers to fscalb.o(.text) for __ARM_scalbnf
    asinf_x.o(i.__asinf$lsc) refers to sqrtf.o(i.sqrtf) for sqrtf
    asinf_x.o(i.__asinf$lsc) refers to fmul.o(.text) for __aeabi_fmul
    asinf_x.o(i.__asinf$lsc) refers to funder.o(i.__mathlib_flt_infnan) for __mathlib_flt_infnan
    asinf_x.o(i.__asinf$lsc) refers to errno.o(i.__set_errno) for __set_errno
    atan2f.o(i.__softfp_atan2f) refers (Special) to iusefp.o(.text) for __I$use$fp
    atan2f.o(i.__softfp_atan2f) refers to atan2f.o(i.atan2f) for atan2f
    atan2f.o(i.atan2f) refers (Special) to iusefp.o(.text) for __I$use$fp
    atan2f.o(i.atan2f) refers to fdiv.o(.text) for __aeabi_fdiv
    atan2f.o(i.atan2f) refers to fpclassifyf.o(i.__ARM_fpclassifyf) for __ARM_fpclassifyf
    atan2f.o(i.atan2f) refers to funder.o(i.__mathlib_flt_underflow) for __mathlib_flt_underflow
    atan2f.o(i.atan2f) refers to fadd.o(.text) for __aeabi_fsub
    atan2f.o(i.atan2f) refers to fmul.o(.text) for __aeabi_fmul
    atan2f.o(i.atan2f) refers to funder.o(i.__mathlib_flt_infnan2) for __mathlib_flt_infnan2
    atan2f_x.o(i.____softfp_atan2f$lsc) refers (Special) to iusefp.o(.text) for __I$use$fp
    atan2f_x.o(i.____softfp_atan2f$lsc) refers to atan2f_x.o(i.__atan2f$lsc) for __atan2f$lsc
    atan2f_x.o(i.__atan2f$lsc) refers (Special) to iusefp.o(.text) for __I$use$fp
    atan2f_x.o(i.__atan2f$lsc) refers to fdiv.o(.text) for __aeabi_fdiv
    atan2f_x.o(i.__atan2f$lsc) refers to fadd.o(.text) for __aeabi_fsub
    atan2f_x.o(i.__atan2f$lsc) refers to fmul.o(.text) for __aeabi_fmul
    atan2f_x.o(i.__atan2f$lsc) refers to funder.o(i.__mathlib_flt_infnan2) for __mathlib_flt_infnan2
    atan2f_x.o(i.__atan2f$lsc) refers to errno.o(i.__set_errno) for __set_errno
    entry.o(.ARM.Collect$$$$00000000) refers (Special) to entry10a.o(.ARM.Collect$$$$0000000D) for __rt_final_cpp
    entry.o(.ARM.Collect$$$$00000000) refers (Special) to entry11a.o(.ARM.Collect$$$$0000000F) for __rt_final_exit
    entry.o(.ARM.Collect$$$$00000000) refers (Special) to entry7b.o(.ARM.Collect$$$$00000008) for _main_clock
    entry.o(.ARM.Collect$$$$00000000) refers (Special) to entry8b.o(.ARM.Collect$$$$0000000A) for _main_cpp_init
    entry.o(.ARM.Collect$$$$00000000) refers (Special) to entry9a.o(.ARM.Collect$$$$0000000B) for _main_init
    entry.o(.ARM.Collect$$$$00000000) refers (Special) to entry5.o(.ARM.Collect$$$$00000004) for _main_scatterload
    entry.o(.ARM.Collect$$$$00000000) refers (Special) to entry2.o(.ARM.Collect$$$$00000001) for _main_stk
    fadd.o(.text) refers (Special) to iusefp.o(.text) for __I$use$fp
    fadd.o(.text) refers to fepilogue.o(.text) for _float_epilogue
    fmul.o(.text) refers (Special) to iusefp.o(.text) for __I$use$fp
    fdiv.o(.text) refers (Special) to iusefp.o(.text) for __I$use$fp
    fdiv.o(.text) refers to fepilogue.o(.text) for _float_round
    dadd.o(.text) refers (Special) to iusefp.o(.text) for __I$use$fp
    dadd.o(.text) refers to llshl.o(.text) for __aeabi_llsl
    dadd.o(.text) refers to llsshr.o(.text) for __aeabi_lasr
    dadd.o(.text) refers to depilogue.o(.text) for _double_epilogue
    dmul.o(.text) refers (Special) to iusefp.o(.text) for __I$use$fp
    dmul.o(.text) refers to depilogue.o(.text) for _double_epilogue
    fflti.o(.text) refers (Special) to iusefp.o(.text) for __I$use$fp
    fflti.o(.text) refers to fepilogue.o(.text) for _float_epilogue
    ffltui.o(.text) refers (Special) to iusefp.o(.text) for __I$use$fp
    ffltui.o(.text) refers to fepilogue.o(.text) for _float_epilogue
    ffixi.o(.text) refers (Special) to iusefp.o(.text) for __I$use$fp
    ffixui.o(.text) refers (Special) to iusefp.o(.text) for __I$use$fp
    dfixui.o(.text) refers (Special) to iusefp.o(.text) for __I$use$fp
    dfixui.o(.text) refers to llushr.o(.text) for __aeabi_llsr
    f2d.o(.text) refers (Special) to iusefp.o(.text) for __I$use$fp
    d2f.o(.text) refers (Special) to iusefp.o(.text) for __I$use$fp
    d2f.o(.text) refers to fepilogue.o(.text) for _float_round
    cfcmple.o(.text) refers (Special) to iusefp.o(.text) for __I$use$fp
    cfrcmple.o(.text) refers (Special) to iusefp.o(.text) for __I$use$fp
    dunder.o(i.__mathlib_dbl_divzero) refers to ddiv.o(.text) for __aeabi_ddiv
    dunder.o(i.__mathlib_dbl_infnan) refers to dscalb.o(.text) for __ARM_scalbn
    dunder.o(i.__mathlib_dbl_infnan2) refers to dadd.o(.text) for __aeabi_dadd
    dunder.o(i.__mathlib_dbl_invalid) refers to ddiv.o(.text) for __aeabi_ddiv
    dunder.o(i.__mathlib_dbl_overflow) refers to dscalb.o(.text) for __ARM_scalbn
    dunder.o(i.__mathlib_dbl_posinfnan) refers to dmul.o(.text) for __aeabi_dmul
    dunder.o(i.__mathlib_dbl_underflow) refers to dscalb.o(.text) for __ARM_scalbn
    fpclassify.o(i.__ARM_fpclassify) refers (Special) to iusefp.o(.text) for __I$use$fp
    fpclassifyf.o(i.__ARM_fpclassifyf) refers (Special) to iusefp.o(.text) for __I$use$fp
    funder.o(i.__mathlib_flt_divzero) refers to fdiv.o(.text) for __aeabi_fdiv
    funder.o(i.__mathlib_flt_infnan) refers to fscalb.o(.text) for __ARM_scalbnf
    funder.o(i.__mathlib_flt_infnan2) refers to fadd.o(.text) for __aeabi_fadd
    funder.o(i.__mathlib_flt_invalid) refers to fdiv.o(.text) for __aeabi_fdiv
    funder.o(i.__mathlib_flt_overflow) refers to fscalb.o(.text) for __ARM_scalbnf
    funder.o(i.__mathlib_flt_posinfnan) refers to fmul.o(.text) for __aeabi_fmul
    funder.o(i.__mathlib_flt_underflow) refers to fscalb.o(.text) for __ARM_scalbnf
    poly.o(i.__kernel_poly) refers (Special) to iusefp.o(.text) for __I$use$fp
    poly.o(i.__kernel_poly) refers to dmul.o(.text) for __aeabi_dmul
    poly.o(i.__kernel_poly) refers to dadd.o(.text) for __aeabi_dadd
    sqrt.o(i.__softfp_sqrt) refers (Special) to iusefp.o(.text) for __I$use$fp
    sqrt.o(i.__softfp_sqrt) refers to dsqrt.o(.text) for _dsqrt
    sqrt.o(i.__softfp_sqrt) refers to errno.o(i.__set_errno) for __set_errno
    sqrt.o(i.sqrt) refers (Special) to iusefp.o(.text) for __I$use$fp
    sqrt.o(i.sqrt) refers to dsqrt.o(.text) for _dsqrt
    sqrt.o(i.sqrt) refers to errno.o(i.__set_errno) for __set_errno
    sqrt_x.o(i.____softfp_sqrt$lsc) refers (Special) to iusefp.o(.text) for __I$use$fp
    sqrt_x.o(i.____softfp_sqrt$lsc) refers to cdcmple.o(.text) for __aeabi_cdcmple
    sqrt_x.o(i.____softfp_sqrt$lsc) refers to errno.o(i.__set_errno) for __set_errno
    sqrt_x.o(i.____softfp_sqrt$lsc) refers to dsqrt.o(.text) for _dsqrt
    sqrt_x.o(i.__sqrt$lsc) refers (Special) to iusefp.o(.text) for __I$use$fp
    sqrt_x.o(i.__sqrt$lsc) refers to cdcmple.o(.text) for __aeabi_cdcmple
    sqrt_x.o(i.__sqrt$lsc) refers to errno.o(i.__set_errno) for __set_errno
    sqrt_x.o(i.__sqrt$lsc) refers to dsqrt.o(.text) for _dsqrt
    sqrtf.o(i.__softfp_sqrtf) refers (Special) to iusefp.o(.text) for __I$use$fp
    sqrtf.o(i.__softfp_sqrtf) refers to fsqrt.o(.text) for _fsqrt
    sqrtf.o(i.__softfp_sqrtf) refers to errno.o(i.__set_errno) for __set_errno
    sqrtf.o(i.sqrtf) refers (Special) to iusefp.o(.text) for __I$use$fp
    sqrtf.o(i.sqrtf) refers to fsqrt.o(.text) for _fsqrt
    sqrtf.o(i.sqrtf) refers to errno.o(i.__set_errno) for __set_errno
    sqrtf_x.o(i.____softfp_sqrtf$lsc) refers (Special) to iusefp.o(.text) for __I$use$fp
    sqrtf_x.o(i.____softfp_sqrtf$lsc) refers to errno.o(i.__set_errno) for __set_errno
    sqrtf_x.o(i.____softfp_sqrtf$lsc) refers to fsqrt.o(.text) for _fsqrt
    sqrtf_x.o(i.__sqrtf$lsc) refers (Special) to iusefp.o(.text) for __I$use$fp
    sqrtf_x.o(i.__sqrtf$lsc) refers to errno.o(i.__set_errno) for __set_errno
    sqrtf_x.o(i.__sqrtf$lsc) refers to fsqrt.o(.text) for _fsqrt
    entry2.o(.ARM.Collect$$$$00000001) refers to entry2.o(.ARM.Collect$$$$00002712) for __lit__00000000
    entry2.o(.ARM.Collect$$$$00002712) refers to startup_stm32f10x_md.o(STACK) for __initial_sp
    entry2.o(__vectab_stack_and_reset_area) refers to startup_stm32f10x_md.o(STACK) for __initial_sp
    entry2.o(__vectab_stack_and_reset_area) refers to entry.o(.ARM.Collect$$$$00000000) for __main
    entry5.o(.ARM.Collect$$$$00000004) refers to init.o(.text) for __scatterload
    entry9a.o(.ARM.Collect$$$$0000000B) refers to main.o(i.main) for main
    entry9b.o(.ARM.Collect$$$$0000000C) refers to main.o(i.main) for main
    errno.o(i.__aeabi_errno_addr) refers to errno.o(.data) for .data
    errno.o(i.__read_errno) refers to errno.o(.data) for .data
    errno.o(i.__set_errno) refers to errno.o(.data) for .data
    depilogue.o(.text) refers to llshl.o(.text) for __aeabi_llsl
    depilogue.o(.text) refers to llushr.o(.text) for __aeabi_llsr
    ddiv.o(.text) refers to depilogue.o(.text) for _double_round
    init.o(.text) refers to entry5.o(.ARM.Collect$$$$00000004) for __main_after_scatterload
    fsqrt.o(.text) refers to fepilogue.o(.text) for _float_round
    dsqrt.o(.text) refers to llushr.o(.text) for __aeabi_llsr
    dsqrt.o(.text) refers to depilogue.o(.text) for _double_round


==============================================================================

Removing Unused input sections from the image.

    Removing core_cm3.o(.emb_text), (32 bytes).
    Removing system_stm32f10x.o(i.SystemCoreClockUpdate), (164 bytes).
    Removing startup_stm32f10x_md.o(HEAP), (512 bytes).
    Removing delay.o(i.delay_us), (28 bytes).
    Removing delay.o(i.micros), (56 bytes).
    Removing misc.o(i.NVIC_SetVectorTable), (20 bytes).
    Removing misc.o(i.NVIC_SystemLPConfig), (32 bytes).
    Removing misc.o(i.SysTick_CLKSourceConfig), (40 bytes).
    Removing stm32f10x_adc.o(i.ADC_AnalogWatchdogCmd), (20 bytes).
    Removing stm32f10x_adc.o(i.ADC_AnalogWatchdogSingleChannelConfig), (16 bytes).
    Removing stm32f10x_adc.o(i.ADC_AnalogWatchdogThresholdsConfig), (6 bytes).
    Removing stm32f10x_adc.o(i.ADC_AutoInjectedConvCmd), (22 bytes).
    Removing stm32f10x_adc.o(i.ADC_ClearFlag), (6 bytes).
    Removing stm32f10x_adc.o(i.ADC_ClearITPendingBit), (10 bytes).
    Removing stm32f10x_adc.o(i.ADC_Cmd), (22 bytes).
    Removing stm32f10x_adc.o(i.ADC_DMACmd), (22 bytes).
    Removing stm32f10x_adc.o(i.ADC_DeInit), (92 bytes).
    Removing stm32f10x_adc.o(i.ADC_DiscModeChannelCountConfig), (24 bytes).
    Removing stm32f10x_adc.o(i.ADC_DiscModeCmd), (22 bytes).
    Removing stm32f10x_adc.o(i.ADC_ExternalTrigConvCmd), (22 bytes).
    Removing stm32f10x_adc.o(i.ADC_ExternalTrigInjectedConvCmd), (22 bytes).
    Removing stm32f10x_adc.o(i.ADC_ExternalTrigInjectedConvConfig), (16 bytes).
    Removing stm32f10x_adc.o(i.ADC_GetCalibrationStatus), (20 bytes).
    Removing stm32f10x_adc.o(i.ADC_GetConversionValue), (8 bytes).
    Removing stm32f10x_adc.o(i.ADC_GetDualModeConversionValue), (12 bytes).
    Removing stm32f10x_adc.o(i.ADC_GetFlagStatus), (18 bytes).
    Removing stm32f10x_adc.o(i.ADC_GetITStatus), (36 bytes).
    Removing stm32f10x_adc.o(i.ADC_GetInjectedConversionValue), (28 bytes).
    Removing stm32f10x_adc.o(i.ADC_GetResetCalibrationStatus), (20 bytes).
    Removing stm32f10x_adc.o(i.ADC_GetSoftwareStartConvStatus), (20 bytes).
    Removing stm32f10x_adc.o(i.ADC_GetSoftwareStartInjectedConvCmdStatus), (20 bytes).
    Removing stm32f10x_adc.o(i.ADC_ITConfig), (24 bytes).
    Removing stm32f10x_adc.o(i.ADC_Init), (80 bytes).
    Removing stm32f10x_adc.o(i.ADC_InjectedChannelConfig), (130 bytes).
    Removing stm32f10x_adc.o(i.ADC_InjectedDiscModeCmd), (22 bytes).
    Removing stm32f10x_adc.o(i.ADC_InjectedSequencerLengthConfig), (24 bytes).
    Removing stm32f10x_adc.o(i.ADC_RegularChannelConfig), (184 bytes).
    Removing stm32f10x_adc.o(i.ADC_ResetCalibration), (10 bytes).
    Removing stm32f10x_adc.o(i.ADC_SetInjectedOffset), (20 bytes).
    Removing stm32f10x_adc.o(i.ADC_SoftwareStartConvCmd), (22 bytes).
    Removing stm32f10x_adc.o(i.ADC_SoftwareStartInjectedConvCmd), (22 bytes).
    Removing stm32f10x_adc.o(i.ADC_StartCalibration), (10 bytes).
    Removing stm32f10x_adc.o(i.ADC_StructInit), (18 bytes).
    Removing stm32f10x_adc.o(i.ADC_TempSensorVrefintCmd), (36 bytes).
    Removing stm32f10x_bkp.o(i.BKP_ClearFlag), (20 bytes).
    Removing stm32f10x_bkp.o(i.BKP_ClearITPendingBit), (20 bytes).
    Removing stm32f10x_bkp.o(i.BKP_DeInit), (16 bytes).
    Removing stm32f10x_bkp.o(i.BKP_GetFlagStatus), (12 bytes).
    Removing stm32f10x_bkp.o(i.BKP_GetITStatus), (12 bytes).
    Removing stm32f10x_bkp.o(i.BKP_ITConfig), (12 bytes).
    Removing stm32f10x_bkp.o(i.BKP_RTCOutputConfig), (28 bytes).
    Removing stm32f10x_bkp.o(i.BKP_ReadBackupRegister), (28 bytes).
    Removing stm32f10x_bkp.o(i.BKP_SetRTCCalibrationValue), (28 bytes).
    Removing stm32f10x_bkp.o(i.BKP_TamperPinCmd), (12 bytes).
    Removing stm32f10x_bkp.o(i.BKP_TamperPinLevelConfig), (12 bytes).
    Removing stm32f10x_bkp.o(i.BKP_WriteBackupRegister), (28 bytes).
    Removing stm32f10x_can.o(i.CAN_CancelTransmit), (48 bytes).
    Removing stm32f10x_can.o(i.CAN_ClearFlag), (56 bytes).
    Removing stm32f10x_can.o(i.CAN_ClearITPendingBit), (168 bytes).
    Removing stm32f10x_can.o(i.CAN_DBGFreeze), (22 bytes).
    Removing stm32f10x_can.o(i.CAN_DeInit), (56 bytes).
    Removing stm32f10x_can.o(i.CAN_FIFORelease), (22 bytes).
    Removing stm32f10x_can.o(i.CAN_FilterInit), (264 bytes).
    Removing stm32f10x_can.o(i.CAN_GetFlagStatus), (120 bytes).
    Removing stm32f10x_can.o(i.CAN_GetITStatus), (288 bytes).
    Removing stm32f10x_can.o(i.CAN_GetLSBTransmitErrorCounter), (12 bytes).
    Removing stm32f10x_can.o(i.CAN_GetLastErrorCode), (12 bytes).
    Removing stm32f10x_can.o(i.CAN_GetReceiveErrorCounter), (10 bytes).
    Removing stm32f10x_can.o(i.CAN_ITConfig), (18 bytes).
    Removing stm32f10x_can.o(i.CAN_Init), (276 bytes).
    Removing stm32f10x_can.o(i.CAN_MessagePending), (30 bytes).
    Removing stm32f10x_can.o(i.CAN_OperatingModeRequest), (162 bytes).
    Removing stm32f10x_can.o(i.CAN_Receive), (240 bytes).
    Removing stm32f10x_can.o(i.CAN_SlaveStartBank), (52 bytes).
    Removing stm32f10x_can.o(i.CAN_Sleep), (30 bytes).
    Removing stm32f10x_can.o(i.CAN_StructInit), (32 bytes).
    Removing stm32f10x_can.o(i.CAN_TTComModeCmd), (118 bytes).
    Removing stm32f10x_can.o(i.CAN_Transmit), (294 bytes).
    Removing stm32f10x_can.o(i.CAN_TransmitStatus), (160 bytes).
    Removing stm32f10x_can.o(i.CAN_WakeUp), (48 bytes).
    Removing stm32f10x_can.o(i.CheckITStatus), (18 bytes).
    Removing stm32f10x_cec.o(i.CEC_ClearFlag), (36 bytes).
    Removing stm32f10x_cec.o(i.CEC_ClearITPendingBit), (36 bytes).
    Removing stm32f10x_cec.o(i.CEC_Cmd), (32 bytes).
    Removing stm32f10x_cec.o(i.CEC_DeInit), (22 bytes).
    Removing stm32f10x_cec.o(i.CEC_EndOfMessageCmd), (12 bytes).
    Removing stm32f10x_cec.o(i.CEC_GetFlagStatus), (48 bytes).
    Removing stm32f10x_cec.o(i.CEC_GetITStatus), (40 bytes).
    Removing stm32f10x_cec.o(i.CEC_ITConfig), (12 bytes).
    Removing stm32f10x_cec.o(i.CEC_Init), (32 bytes).
    Removing stm32f10x_cec.o(i.CEC_OwnAddressConfig), (12 bytes).
    Removing stm32f10x_cec.o(i.CEC_ReceiveDataByte), (12 bytes).
    Removing stm32f10x_cec.o(i.CEC_SendDataByte), (12 bytes).
    Removing stm32f10x_cec.o(i.CEC_SetPrescaler), (12 bytes).
    Removing stm32f10x_cec.o(i.CEC_StartOfMessage), (12 bytes).
    Removing stm32f10x_crc.o(i.CRC_CalcBlockCRC), (36 bytes).
    Removing stm32f10x_crc.o(i.CRC_CalcCRC), (16 bytes).
    Removing stm32f10x_crc.o(i.CRC_GetCRC), (12 bytes).
    Removing stm32f10x_crc.o(i.CRC_GetIDRegister), (12 bytes).
    Removing stm32f10x_crc.o(i.CRC_ResetDR), (12 bytes).
    Removing stm32f10x_crc.o(i.CRC_SetIDRegister), (12 bytes).
    Removing stm32f10x_dac.o(i.DAC_Cmd), (40 bytes).
    Removing stm32f10x_dac.o(i.DAC_DMACmd), (44 bytes).
    Removing stm32f10x_dac.o(i.DAC_DeInit), (22 bytes).
    Removing stm32f10x_dac.o(i.DAC_DualSoftwareTriggerCmd), (36 bytes).
    Removing stm32f10x_dac.o(i.DAC_GetDataOutputValue), (36 bytes).
    Removing stm32f10x_dac.o(i.DAC_Init), (52 bytes).
    Removing stm32f10x_dac.o(i.DAC_SetChannel1Data), (32 bytes).
    Removing stm32f10x_dac.o(i.DAC_SetChannel2Data), (32 bytes).
    Removing stm32f10x_dac.o(i.DAC_SetDualChannelData), (36 bytes).
    Removing stm32f10x_dac.o(i.DAC_SoftwareTriggerCmd), (44 bytes).
    Removing stm32f10x_dac.o(i.DAC_StructInit), (12 bytes).
    Removing stm32f10x_dac.o(i.DAC_WaveGenerationCmd), (40 bytes).
    Removing stm32f10x_dbgmcu.o(i.DBGMCU_Config), (32 bytes).
    Removing stm32f10x_dbgmcu.o(i.DBGMCU_GetDEVID), (16 bytes).
    Removing stm32f10x_dbgmcu.o(i.DBGMCU_GetREVID), (12 bytes).
    Removing stm32f10x_dma.o(i.DMA_ClearFlag), (28 bytes).
    Removing stm32f10x_dma.o(i.DMA_ClearITPendingBit), (28 bytes).
    Removing stm32f10x_dma.o(i.DMA_Cmd), (24 bytes).
    Removing stm32f10x_dma.o(i.DMA_DeInit), (332 bytes).
    Removing stm32f10x_dma.o(i.DMA_GetCurrDataCounter), (8 bytes).
    Removing stm32f10x_dma.o(i.DMA_GetFlagStatus), (44 bytes).
    Removing stm32f10x_dma.o(i.DMA_GetITStatus), (44 bytes).
    Removing stm32f10x_dma.o(i.DMA_ITConfig), (18 bytes).
    Removing stm32f10x_dma.o(i.DMA_Init), (60 bytes).
    Removing stm32f10x_dma.o(i.DMA_SetCurrDataCounter), (4 bytes).
    Removing stm32f10x_dma.o(i.DMA_StructInit), (26 bytes).
    Removing stm32f10x_exti.o(i.EXTI_ClearFlag), (12 bytes).
    Removing stm32f10x_exti.o(i.EXTI_ClearITPendingBit), (12 bytes).
    Removing stm32f10x_exti.o(i.EXTI_DeInit), (36 bytes).
    Removing stm32f10x_exti.o(i.EXTI_GenerateSWInterrupt), (16 bytes).
    Removing stm32f10x_exti.o(i.EXTI_GetFlagStatus), (24 bytes).
    Removing stm32f10x_exti.o(i.EXTI_GetITStatus), (40 bytes).
    Removing stm32f10x_exti.o(i.EXTI_Init), (148 bytes).
    Removing stm32f10x_exti.o(i.EXTI_StructInit), (16 bytes).
    Removing stm32f10x_flash.o(i.FLASH_ClearFlag), (12 bytes).
    Removing stm32f10x_flash.o(i.FLASH_EnableWriteProtection), (196 bytes).
    Removing stm32f10x_flash.o(i.FLASH_EraseAllBank1Pages), (72 bytes).
    Removing stm32f10x_flash.o(i.FLASH_EraseAllPages), (72 bytes).
    Removing stm32f10x_flash.o(i.FLASH_EraseOptionBytes), (168 bytes).
    Removing stm32f10x_flash.o(i.FLASH_ErasePage), (76 bytes).
    Removing stm32f10x_flash.o(i.FLASH_GetBank1Status), (52 bytes).
    Removing stm32f10x_flash.o(i.FLASH_GetFlagStatus), (48 bytes).
    Removing stm32f10x_flash.o(i.FLASH_GetPrefetchBufferStatus), (24 bytes).
    Removing stm32f10x_flash.o(i.FLASH_GetReadOutProtectionStatus), (24 bytes).
    Removing stm32f10x_flash.o(i.FLASH_GetStatus), (52 bytes).
    Removing stm32f10x_flash.o(i.FLASH_GetUserOptionByte), (12 bytes).
    Removing stm32f10x_flash.o(i.FLASH_GetWriteProtectionOptionByte), (12 bytes).
    Removing stm32f10x_flash.o(i.FLASH_HalfCycleAccessCmd), (28 bytes).
    Removing stm32f10x_flash.o(i.FLASH_ITConfig), (32 bytes).
    Removing stm32f10x_flash.o(i.FLASH_Lock), (20 bytes).
    Removing stm32f10x_flash.o(i.FLASH_LockBank1), (20 bytes).
    Removing stm32f10x_flash.o(i.FLASH_PrefetchBufferCmd), (28 bytes).
    Removing stm32f10x_flash.o(i.FLASH_ProgramHalfWord), (64 bytes).
    Removing stm32f10x_flash.o(i.FLASH_ProgramOptionByteData), (84 bytes).
    Removing stm32f10x_flash.o(i.FLASH_ProgramWord), (108 bytes).
    Removing stm32f10x_flash.o(i.FLASH_ReadOutProtection), (172 bytes).
    Removing stm32f10x_flash.o(i.FLASH_SetLatency), (24 bytes).
    Removing stm32f10x_flash.o(i.FLASH_Unlock), (24 bytes).
    Removing stm32f10x_flash.o(i.FLASH_UnlockBank1), (24 bytes).
    Removing stm32f10x_flash.o(i.FLASH_UserOptionByteConfig), (104 bytes).
    Removing stm32f10x_flash.o(i.FLASH_WaitForLastBank1Operation), (38 bytes).
    Removing stm32f10x_flash.o(i.FLASH_WaitForLastOperation), (38 bytes).
    Removing stm32f10x_fsmc.o(i.FSMC_ClearFlag), (64 bytes).
    Removing stm32f10x_fsmc.o(i.FSMC_ClearITPendingBit), (72 bytes).
    Removing stm32f10x_fsmc.o(i.FSMC_GetECC), (28 bytes).
    Removing stm32f10x_fsmc.o(i.FSMC_GetFlagStatus), (56 bytes).
    Removing stm32f10x_fsmc.o(i.FSMC_GetITStatus), (68 bytes).
    Removing stm32f10x_fsmc.o(i.FSMC_ITConfig), (128 bytes).
    Removing stm32f10x_fsmc.o(i.FSMC_NANDCmd), (92 bytes).
    Removing stm32f10x_fsmc.o(i.FSMC_NANDDeInit), (68 bytes).
    Removing stm32f10x_fsmc.o(i.FSMC_NANDECCCmd), (92 bytes).
    Removing stm32f10x_fsmc.o(i.FSMC_NANDInit), (136 bytes).
    Removing stm32f10x_fsmc.o(i.FSMC_NANDStructInit), (54 bytes).
    Removing stm32f10x_fsmc.o(i.FSMC_NORSRAMCmd), (52 bytes).
    Removing stm32f10x_fsmc.o(i.FSMC_NORSRAMDeInit), (54 bytes).
    Removing stm32f10x_fsmc.o(i.FSMC_NORSRAMInit), (230 bytes).
    Removing stm32f10x_fsmc.o(i.FSMC_NORSRAMStructInit), (114 bytes).
    Removing stm32f10x_fsmc.o(i.FSMC_PCCARDCmd), (48 bytes).
    Removing stm32f10x_fsmc.o(i.FSMC_PCCARDDeInit), (40 bytes).
    Removing stm32f10x_fsmc.o(i.FSMC_PCCARDInit), (132 bytes).
    Removing stm32f10x_fsmc.o(i.FSMC_PCCARDStructInit), (60 bytes).
    Removing stm32f10x_gpio.o(i.GPIO_AFIODeInit), (20 bytes).
    Removing stm32f10x_gpio.o(i.GPIO_DeInit), (200 bytes).
    Removing stm32f10x_gpio.o(i.GPIO_ETH_MediaInterfaceConfig), (12 bytes).
    Removing stm32f10x_gpio.o(i.GPIO_EXTILineConfig), (64 bytes).
    Removing stm32f10x_gpio.o(i.GPIO_EventOutputCmd), (12 bytes).
    Removing stm32f10x_gpio.o(i.GPIO_EventOutputConfig), (32 bytes).
    Removing stm32f10x_gpio.o(i.GPIO_PinLockConfig), (18 bytes).
    Removing stm32f10x_gpio.o(i.GPIO_ReadInputData), (8 bytes).
    Removing stm32f10x_gpio.o(i.GPIO_ReadInputDataBit), (18 bytes).
    Removing stm32f10x_gpio.o(i.GPIO_ReadOutputData), (8 bytes).
    Removing stm32f10x_gpio.o(i.GPIO_ReadOutputDataBit), (18 bytes).
    Removing stm32f10x_gpio.o(i.GPIO_ResetBits), (4 bytes).
    Removing stm32f10x_gpio.o(i.GPIO_StructInit), (16 bytes).
    Removing stm32f10x_gpio.o(i.GPIO_Write), (4 bytes).
    Removing stm32f10x_gpio.o(i.GPIO_WriteBit), (10 bytes).
    Removing stm32f10x_i2c.o(i.I2C_ARPCmd), (24 bytes).
    Removing stm32f10x_i2c.o(i.I2C_AcknowledgeConfig), (24 bytes).
    Removing stm32f10x_i2c.o(i.I2C_CalculatePEC), (24 bytes).
    Removing stm32f10x_i2c.o(i.I2C_CheckEvent), (42 bytes).
    Removing stm32f10x_i2c.o(i.I2C_ClearFlag), (12 bytes).
    Removing stm32f10x_i2c.o(i.I2C_ClearITPendingBit), (12 bytes).
    Removing stm32f10x_i2c.o(i.I2C_Cmd), (24 bytes).
    Removing stm32f10x_i2c.o(i.I2C_DMACmd), (24 bytes).
    Removing stm32f10x_i2c.o(i.I2C_DMALastTransferCmd), (24 bytes).
    Removing stm32f10x_i2c.o(i.I2C_DeInit), (56 bytes).
    Removing stm32f10x_i2c.o(i.I2C_DualAddressCmd), (24 bytes).
    Removing stm32f10x_i2c.o(i.I2C_FastModeDutyCycleConfig), (28 bytes).
    Removing stm32f10x_i2c.o(i.I2C_GeneralCallCmd), (24 bytes).
    Removing stm32f10x_i2c.o(i.I2C_GenerateSTART), (24 bytes).
    Removing stm32f10x_i2c.o(i.I2C_GenerateSTOP), (24 bytes).
    Removing stm32f10x_i2c.o(i.I2C_GetFlagStatus), (58 bytes).
    Removing stm32f10x_i2c.o(i.I2C_GetITStatus), (38 bytes).
    Removing stm32f10x_i2c.o(i.I2C_GetLastEvent), (26 bytes).
    Removing stm32f10x_i2c.o(i.I2C_GetPEC), (8 bytes).
    Removing stm32f10x_i2c.o(i.I2C_ITConfig), (18 bytes).
    Removing stm32f10x_i2c.o(i.I2C_Init), (236 bytes).
    Removing stm32f10x_i2c.o(i.I2C_NACKPositionConfig), (28 bytes).
    Removing stm32f10x_i2c.o(i.I2C_OwnAddress2Config), (22 bytes).
    Removing stm32f10x_i2c.o(i.I2C_PECPositionConfig), (28 bytes).
    Removing stm32f10x_i2c.o(i.I2C_ReadRegister), (22 bytes).
    Removing stm32f10x_i2c.o(i.I2C_ReceiveData), (8 bytes).
    Removing stm32f10x_i2c.o(i.I2C_SMBusAlertConfig), (28 bytes).
    Removing stm32f10x_i2c.o(i.I2C_Send7bitAddress), (18 bytes).
    Removing stm32f10x_i2c.o(i.I2C_SendData), (4 bytes).
    Removing stm32f10x_i2c.o(i.I2C_SoftwareResetCmd), (22 bytes).
    Removing stm32f10x_i2c.o(i.I2C_StretchClockCmd), (24 bytes).
    Removing stm32f10x_i2c.o(i.I2C_StructInit), (36 bytes).
    Removing stm32f10x_i2c.o(i.I2C_TransmitPEC), (24 bytes).
    Removing stm32f10x_iwdg.o(i.IWDG_GetFlagStatus), (24 bytes).
    Removing stm32f10x_pwr.o(i.PWR_BackupAccessCmd), (12 bytes).
    Removing stm32f10x_pwr.o(i.PWR_ClearFlag), (20 bytes).
    Removing stm32f10x_pwr.o(i.PWR_DeInit), (22 bytes).
    Removing stm32f10x_pwr.o(i.PWR_EnterSTANDBYMode), (52 bytes).
    Removing stm32f10x_pwr.o(i.PWR_EnterSTOPMode), (64 bytes).
    Removing stm32f10x_pwr.o(i.PWR_GetFlagStatus), (24 bytes).
    Removing stm32f10x_pwr.o(i.PWR_PVDCmd), (12 bytes).
    Removing stm32f10x_pwr.o(i.PWR_PVDLevelConfig), (24 bytes).
    Removing stm32f10x_pwr.o(i.PWR_WakeUpPinCmd), (12 bytes).
    Removing stm32f10x_rcc.o(i.RCC_ADCCLKConfig), (24 bytes).
    Removing stm32f10x_rcc.o(i.RCC_AHBPeriphClockCmd), (32 bytes).
    Removing stm32f10x_rcc.o(i.RCC_APB1PeriphResetCmd), (32 bytes).
    Removing stm32f10x_rcc.o(i.RCC_APB2PeriphResetCmd), (32 bytes).
    Removing stm32f10x_rcc.o(i.RCC_AdjustHSICalibrationValue), (24 bytes).
    Removing stm32f10x_rcc.o(i.RCC_BackupResetCmd), (12 bytes).
    Removing stm32f10x_rcc.o(i.RCC_ClearFlag), (20 bytes).
    Removing stm32f10x_rcc.o(i.RCC_ClearITPendingBit), (12 bytes).
    Removing stm32f10x_rcc.o(i.RCC_ClockSecuritySystemCmd), (12 bytes).
    Removing stm32f10x_rcc.o(i.RCC_DeInit), (76 bytes).
    Removing stm32f10x_rcc.o(i.RCC_GetFlagStatus), (60 bytes).
    Removing stm32f10x_rcc.o(i.RCC_GetITStatus), (24 bytes).
    Removing stm32f10x_rcc.o(i.RCC_GetSYSCLKSource), (16 bytes).
    Removing stm32f10x_rcc.o(i.RCC_HCLKConfig), (24 bytes).
    Removing stm32f10x_rcc.o(i.RCC_HSEConfig), (76 bytes).
    Removing stm32f10x_rcc.o(i.RCC_HSICmd), (12 bytes).
    Removing stm32f10x_rcc.o(i.RCC_ITConfig), (32 bytes).
    Removing stm32f10x_rcc.o(i.RCC_LSEConfig), (52 bytes).
    Removing stm32f10x_rcc.o(i.RCC_LSICmd), (12 bytes).
    Removing stm32f10x_rcc.o(i.RCC_MCOConfig), (12 bytes).
    Removing stm32f10x_rcc.o(i.RCC_PCLK1Config), (24 bytes).
    Removing stm32f10x_rcc.o(i.RCC_PCLK2Config), (24 bytes).
    Removing stm32f10x_rcc.o(i.RCC_PLLCmd), (12 bytes).
    Removing stm32f10x_rcc.o(i.RCC_PLLConfig), (28 bytes).
    Removing stm32f10x_rcc.o(i.RCC_RTCCLKCmd), (12 bytes).
    Removing stm32f10x_rcc.o(i.RCC_RTCCLKConfig), (16 bytes).
    Removing stm32f10x_rcc.o(i.RCC_SYSCLKConfig), (24 bytes).
    Removing stm32f10x_rcc.o(i.RCC_USBCLKConfig), (12 bytes).
    Removing stm32f10x_rcc.o(i.RCC_WaitForHSEStartUp), (56 bytes).
    Removing stm32f10x_rtc.o(i.RTC_ClearFlag), (16 bytes).
    Removing stm32f10x_rtc.o(i.RTC_ClearITPendingBit), (16 bytes).
    Removing stm32f10x_rtc.o(i.RTC_EnterConfigMode), (20 bytes).
    Removing stm32f10x_rtc.o(i.RTC_ExitConfigMode), (20 bytes).
    Removing stm32f10x_rtc.o(i.RTC_GetCounter), (20 bytes).
    Removing stm32f10x_rtc.o(i.RTC_GetDivider), (24 bytes).
    Removing stm32f10x_rtc.o(i.RTC_GetFlagStatus), (24 bytes).
    Removing stm32f10x_rtc.o(i.RTC_GetITStatus), (36 bytes).
    Removing stm32f10x_rtc.o(i.RTC_ITConfig), (32 bytes).
    Removing stm32f10x_rtc.o(i.RTC_SetAlarm), (28 bytes).
    Removing stm32f10x_rtc.o(i.RTC_SetCounter), (28 bytes).
    Removing stm32f10x_rtc.o(i.RTC_SetPrescaler), (32 bytes).
    Removing stm32f10x_rtc.o(i.RTC_WaitForLastTask), (20 bytes).
    Removing stm32f10x_rtc.o(i.RTC_WaitForSynchro), (36 bytes).
    Removing stm32f10x_sdio.o(i.SDIO_CEATAITCmd), (16 bytes).
    Removing stm32f10x_sdio.o(i.SDIO_ClearFlag), (12 bytes).
    Removing stm32f10x_sdio.o(i.SDIO_ClearITPendingBit), (12 bytes).
    Removing stm32f10x_sdio.o(i.SDIO_ClockCmd), (12 bytes).
    Removing stm32f10x_sdio.o(i.SDIO_CmdStructInit), (14 bytes).
    Removing stm32f10x_sdio.o(i.SDIO_CommandCompletionCmd), (12 bytes).
    Removing stm32f10x_sdio.o(i.SDIO_DMACmd), (12 bytes).
    Removing stm32f10x_sdio.o(i.SDIO_DataConfig), (48 bytes).
    Removing stm32f10x_sdio.o(i.SDIO_DataStructInit), (20 bytes).
    Removing stm32f10x_sdio.o(i.SDIO_DeInit), (36 bytes).
    Removing stm32f10x_sdio.o(i.SDIO_GetCommandResponse), (12 bytes).
    Removing stm32f10x_sdio.o(i.SDIO_GetDataCounter), (12 bytes).
    Removing stm32f10x_sdio.o(i.SDIO_GetFIFOCount), (12 bytes).
    Removing stm32f10x_sdio.o(i.SDIO_GetFlagStatus), (24 bytes).
    Removing stm32f10x_sdio.o(i.SDIO_GetITStatus), (24 bytes).
    Removing stm32f10x_sdio.o(i.SDIO_GetPowerState), (16 bytes).
    Removing stm32f10x_sdio.o(i.SDIO_GetResponse), (24 bytes).
    Removing stm32f10x_sdio.o(i.SDIO_ITConfig), (32 bytes).
    Removing stm32f10x_sdio.o(i.SDIO_Init), (48 bytes).
    Removing stm32f10x_sdio.o(i.SDIO_ReadData), (12 bytes).
    Removing stm32f10x_sdio.o(i.SDIO_SendCEATACmd), (12 bytes).
    Removing stm32f10x_sdio.o(i.SDIO_SendCommand), (44 bytes).
    Removing stm32f10x_sdio.o(i.SDIO_SendSDIOSuspendCmd), (12 bytes).
    Removing stm32f10x_sdio.o(i.SDIO_SetPowerState), (28 bytes).
    Removing stm32f10x_sdio.o(i.SDIO_SetSDIOOperation), (12 bytes).
    Removing stm32f10x_sdio.o(i.SDIO_SetSDIOReadWaitMode), (12 bytes).
    Removing stm32f10x_sdio.o(i.SDIO_StartSDIOReadWait), (12 bytes).
    Removing stm32f10x_sdio.o(i.SDIO_StopSDIOReadWait), (12 bytes).
    Removing stm32f10x_sdio.o(i.SDIO_StructInit), (16 bytes).
    Removing stm32f10x_sdio.o(i.SDIO_WriteData), (12 bytes).
    Removing stm32f10x_spi.o(i.I2S_Cmd), (24 bytes).
    Removing stm32f10x_spi.o(i.I2S_Init), (232 bytes).
    Removing stm32f10x_spi.o(i.I2S_StructInit), (20 bytes).
    Removing stm32f10x_spi.o(i.SPI_BiDirectionalLineConfig), (28 bytes).
    Removing stm32f10x_spi.o(i.SPI_CalculateCRC), (24 bytes).
    Removing stm32f10x_spi.o(i.SPI_DataSizeConfig), (18 bytes).
    Removing stm32f10x_spi.o(i.SPI_GetCRC), (16 bytes).
    Removing stm32f10x_spi.o(i.SPI_GetCRCPolynomial), (6 bytes).
    Removing stm32f10x_spi.o(i.SPI_I2S_ClearFlag), (6 bytes).
    Removing stm32f10x_spi.o(i.SPI_I2S_ClearITPendingBit), (20 bytes).
    Removing stm32f10x_spi.o(i.SPI_I2S_DMACmd), (18 bytes).
    Removing stm32f10x_spi.o(i.SPI_I2S_DeInit), (88 bytes).
    Removing stm32f10x_spi.o(i.SPI_I2S_GetITStatus), (52 bytes).
    Removing stm32f10x_spi.o(i.SPI_I2S_ITConfig), (32 bytes).
    Removing stm32f10x_spi.o(i.SPI_NSSInternalSoftwareConfig), (30 bytes).
    Removing stm32f10x_spi.o(i.SPI_SSOutputCmd), (24 bytes).
    Removing stm32f10x_spi.o(i.SPI_StructInit), (24 bytes).
    Removing stm32f10x_spi.o(i.SPI_TransmitCRC), (10 bytes).
    Removing stm32f10x_tim.o(i.TI1_Config), (128 bytes).
    Removing stm32f10x_tim.o(i.TI2_Config), (152 bytes).
    Removing stm32f10x_tim.o(i.TI3_Config), (144 bytes).
    Removing stm32f10x_tim.o(i.TI4_Config), (152 bytes).
    Removing stm32f10x_tim.o(i.TIM_BDTRConfig), (32 bytes).
    Removing stm32f10x_tim.o(i.TIM_BDTRStructInit), (18 bytes).
    Removing stm32f10x_tim.o(i.TIM_CCPreloadControl), (24 bytes).
    Removing stm32f10x_tim.o(i.TIM_CCxCmd), (30 bytes).
    Removing stm32f10x_tim.o(i.TIM_CCxNCmd), (30 bytes).
    Removing stm32f10x_tim.o(i.TIM_ClearFlag), (6 bytes).
    Removing stm32f10x_tim.o(i.TIM_ClearITPendingBit), (6 bytes).
    Removing stm32f10x_tim.o(i.TIM_ClearOC1Ref), (18 bytes).
    Removing stm32f10x_tim.o(i.TIM_ClearOC2Ref), (24 bytes).
    Removing stm32f10x_tim.o(i.TIM_ClearOC3Ref), (18 bytes).
    Removing stm32f10x_tim.o(i.TIM_ClearOC4Ref), (24 bytes).
    Removing stm32f10x_tim.o(i.TIM_CounterModeConfig), (18 bytes).
    Removing stm32f10x_tim.o(i.TIM_CtrlPWMOutputs), (30 bytes).
    Removing stm32f10x_tim.o(i.TIM_DMACmd), (18 bytes).
    Removing stm32f10x_tim.o(i.TIM_DMAConfig), (10 bytes).
    Removing stm32f10x_tim.o(i.TIM_DeInit), (488 bytes).
    Removing stm32f10x_tim.o(i.TIM_ETRClockMode1Config), (54 bytes).
    Removing stm32f10x_tim.o(i.TIM_ETRClockMode2Config), (32 bytes).
    Removing stm32f10x_tim.o(i.TIM_ETRConfig), (28 bytes).
    Removing stm32f10x_tim.o(i.TIM_EncoderInterfaceConfig), (66 bytes).
    Removing stm32f10x_tim.o(i.TIM_ForcedOC1Config), (18 bytes).
    Removing stm32f10x_tim.o(i.TIM_ForcedOC2Config), (26 bytes).
    Removing stm32f10x_tim.o(i.TIM_ForcedOC3Config), (18 bytes).
    Removing stm32f10x_tim.o(i.TIM_ForcedOC4Config), (26 bytes).
    Removing stm32f10x_tim.o(i.TIM_GenerateEvent), (4 bytes).
    Removing stm32f10x_tim.o(i.TIM_GetCapture1), (6 bytes).
    Removing stm32f10x_tim.o(i.TIM_GetCapture2), (6 bytes).
    Removing stm32f10x_tim.o(i.TIM_GetCapture3), (6 bytes).
    Removing stm32f10x_tim.o(i.TIM_GetCapture4), (8 bytes).
    Removing stm32f10x_tim.o(i.TIM_GetCounter), (6 bytes).
    Removing stm32f10x_tim.o(i.TIM_GetFlagStatus), (18 bytes).
    Removing stm32f10x_tim.o(i.TIM_GetITStatus), (34 bytes).
    Removing stm32f10x_tim.o(i.TIM_GetPrescaler), (6 bytes).
    Removing stm32f10x_tim.o(i.TIM_ICInit), (172 bytes).
    Removing stm32f10x_tim.o(i.TIM_ICStructInit), (18 bytes).
    Removing stm32f10x_tim.o(i.TIM_ITRxExternalClockConfig), (24 bytes).
    Removing stm32f10x_tim.o(i.TIM_InternalClockConfig), (12 bytes).
    Removing stm32f10x_tim.o(i.TIM_OC1FastConfig), (18 bytes).
    Removing stm32f10x_tim.o(i.TIM_OC1NPolarityConfig), (18 bytes).
    Removing stm32f10x_tim.o(i.TIM_OC1PolarityConfig), (18 bytes).
    Removing stm32f10x_tim.o(i.TIM_OC2FastConfig), (26 bytes).
    Removing stm32f10x_tim.o(i.TIM_OC2NPolarityConfig), (26 bytes).
    Removing stm32f10x_tim.o(i.TIM_OC2PolarityConfig), (26 bytes).
    Removing stm32f10x_tim.o(i.TIM_OC3FastConfig), (18 bytes).
    Removing stm32f10x_tim.o(i.TIM_OC3NPolarityConfig), (26 bytes).
    Removing stm32f10x_tim.o(i.TIM_OC3PolarityConfig), (26 bytes).
    Removing stm32f10x_tim.o(i.TIM_OC4FastConfig), (26 bytes).
    Removing stm32f10x_tim.o(i.TIM_OC4PolarityConfig), (26 bytes).
    Removing stm32f10x_tim.o(i.TIM_OCStructInit), (20 bytes).
    Removing stm32f10x_tim.o(i.TIM_PWMIConfig), (124 bytes).
    Removing stm32f10x_tim.o(i.TIM_PrescalerConfig), (6 bytes).
    Removing stm32f10x_tim.o(i.TIM_SelectCCDMA), (24 bytes).
    Removing stm32f10x_tim.o(i.TIM_SelectCOM), (24 bytes).
    Removing stm32f10x_tim.o(i.TIM_SelectHallSensor), (24 bytes).
    Removing stm32f10x_tim.o(i.TIM_SelectInputTrigger), (18 bytes).
    Removing stm32f10x_tim.o(i.TIM_SelectMasterSlaveMode), (18 bytes).
    Removing stm32f10x_tim.o(i.TIM_SelectOCxM), (82 bytes).
    Removing stm32f10x_tim.o(i.TIM_SelectOnePulseMode), (18 bytes).
    Removing stm32f10x_tim.o(i.TIM_SelectOutputTrigger), (18 bytes).
    Removing stm32f10x_tim.o(i.TIM_SelectSlaveMode), (18 bytes).
    Removing stm32f10x_tim.o(i.TIM_SetAutoreload), (4 bytes).
    Removing stm32f10x_tim.o(i.TIM_SetClockDivision), (18 bytes).
    Removing stm32f10x_tim.o(i.TIM_SetCompare1), (4 bytes).
    Removing stm32f10x_tim.o(i.TIM_SetCompare2), (4 bytes).
    Removing stm32f10x_tim.o(i.TIM_SetCompare3), (4 bytes).
    Removing stm32f10x_tim.o(i.TIM_SetCompare4), (6 bytes).
    Removing stm32f10x_tim.o(i.TIM_SetCounter), (4 bytes).
    Removing stm32f10x_tim.o(i.TIM_SetIC1Prescaler), (18 bytes).
    Removing stm32f10x_tim.o(i.TIM_SetIC2Prescaler), (26 bytes).
    Removing stm32f10x_tim.o(i.TIM_SetIC3Prescaler), (18 bytes).
    Removing stm32f10x_tim.o(i.TIM_SetIC4Prescaler), (26 bytes).
    Removing stm32f10x_tim.o(i.TIM_TIxExternalClockConfig), (62 bytes).
    Removing stm32f10x_tim.o(i.TIM_TimeBaseStructInit), (18 bytes).
    Removing stm32f10x_tim.o(i.TIM_UpdateDisableConfig), (24 bytes).
    Removing stm32f10x_tim.o(i.TIM_UpdateRequestConfig), (24 bytes).
    Removing stm32f10x_usart.o(i.USART_ClearFlag), (18 bytes).
    Removing stm32f10x_usart.o(i.USART_ClearITPendingBit), (30 bytes).
    Removing stm32f10x_usart.o(i.USART_ClockStructInit), (12 bytes).
    Removing stm32f10x_usart.o(i.USART_DMACmd), (18 bytes).
    Removing stm32f10x_usart.o(i.USART_DeInit), (156 bytes).
    Removing stm32f10x_usart.o(i.USART_GetITStatus), (84 bytes).
    Removing stm32f10x_usart.o(i.USART_HalfDuplexCmd), (24 bytes).
    Removing stm32f10x_usart.o(i.USART_IrDACmd), (24 bytes).
    Removing stm32f10x_usart.o(i.USART_IrDAConfig), (18 bytes).
    Removing stm32f10x_usart.o(i.USART_LINBreakDetectLengthConfig), (18 bytes).
    Removing stm32f10x_usart.o(i.USART_LINCmd), (24 bytes).
    Removing stm32f10x_usart.o(i.USART_OneBitMethodCmd), (24 bytes).
    Removing stm32f10x_usart.o(i.USART_OverSampling8Cmd), (22 bytes).
    Removing stm32f10x_usart.o(i.USART_ReceiverWakeUpCmd), (24 bytes).
    Removing stm32f10x_usart.o(i.USART_SendBreak), (10 bytes).
    Removing stm32f10x_usart.o(i.USART_SetAddress), (18 bytes).
    Removing stm32f10x_usart.o(i.USART_SetGuardTime), (16 bytes).
    Removing stm32f10x_usart.o(i.USART_SetPrescaler), (16 bytes).
    Removing stm32f10x_usart.o(i.USART_SmartCardCmd), (24 bytes).
    Removing stm32f10x_usart.o(i.USART_SmartCardNACKCmd), (24 bytes).
    Removing stm32f10x_usart.o(i.USART_StructInit), (24 bytes).
    Removing stm32f10x_usart.o(i.USART_WakeUpConfig), (18 bytes).
    Removing stm32f10x_wwdg.o(i.WWDG_ClearFlag), (12 bytes).
    Removing stm32f10x_wwdg.o(i.WWDG_DeInit), (22 bytes).
    Removing stm32f10x_wwdg.o(i.WWDG_Enable), (16 bytes).
    Removing stm32f10x_wwdg.o(i.WWDG_EnableIT), (12 bytes).
    Removing stm32f10x_wwdg.o(i.WWDG_GetFlagStatus), (12 bytes).
    Removing stm32f10x_wwdg.o(i.WWDG_SetCounter), (16 bytes).
    Removing stm32f10x_wwdg.o(i.WWDG_SetPrescaler), (24 bytes).
    Removing stm32f10x_wwdg.o(i.WWDG_SetWindowValue), (40 bytes).
    Removing iic_software.o(i.I2c_Soft_ReadByte), (136 bytes).
    Removing iic_software.o(i.IIC_Read_1Byte), (82 bytes).
    Removing iic_software.o(i.IIC_Read_nS_Byte), (130 bytes).
    Removing iic_software.o(i.IIC_Write_Bytes), (108 bytes).
    Removing adc.o(i.ADC1_GPIO_Config), (48 bytes).
    Removing adc.o(i.ADC1_Init), (12 bytes).
    Removing adc.o(i.ADC1_Mode_Config), (224 bytes).
    Removing adc.o(i.Voltage_Check), (232 bytes).
    Removing usart3.o(i.USART1_setBaudRate), (20 bytes).
    Removing usart3.o(i.USART3_Send1), (32 bytes).
    Removing usart3.o(.data), (7 bytes).
    Removing uart1.o(i.ANO_Uart1_Put_Buf), (76 bytes).
    Removing uart1.o(i.ANO_Uart1_Put_Char), (48 bytes).
    Removing uart1.o(i.ANO_Uart1_Put_String), (46 bytes).
    Removing uart1.o(i.fputc), (36 bytes).
    Removing usart2.o(i.UART2_Init), (200 bytes).
    Removing usart2.o(i.UART2_Put_Buf), (76 bytes).
    Removing usart2.o(i.UART2_Put_Char), (48 bytes).
    Removing usart2.o(i.UART2_Put_String), (22 bytes).
    Removing nrf24l01.o(i.NRF24L01_RxPacket), (52 bytes).
    Removing nrf24l01.o(i.NRF24L01_TxPacket), (100 bytes).
    Removing nrf24l01.o(i.RX_Mode), (88 bytes).
    Removing nrf24l01.o(i.TX_Mode), (104 bytes).
    Removing mpu6050.o(i.mpu6050_rest), (28 bytes).
    Removing ano_dt.o(i.ANO_Recive), (248 bytes).
    Removing remote.o(.bss), (32 bytes).
    Removing wifi_ufo.o(i.WIFI_UFO_Data_Receive_Prepare), (92 bytes).
    Removing ano_data_transfer.o(i.ANO_DT_Send_Location), (96 bytes).
    Removing ano_data_transfer.o(i.ANO_DT_Send_MotoPWM), (300 bytes).
    Removing ano_data_transfer.o(i.ANO_DT_Send_Speed), (232 bytes).
    Removing ano_data_transfer.o(i.ANO_DT_Send_Version), (200 bytes).
    Removing filter.o(i.AntiPulse_MovingAverage_Filter), (112 bytes).
    Removing filter.o(i.IIR_I_Filter), (140 bytes).
    Removing filter.o(i.LPF_1_Filter_1), (46 bytes).
    Removing filter.o(i.LPF_1_Filter_2), (80 bytes).
    Removing filter.o(i.MovMiddle), (136 bytes).
    Removing filter.o(i.MovingAverage_Filter), (66 bytes).
    Removing filter.o(i.Moving_Average), (164 bytes).
    Removing filter.o(i.Moving_Median), (192 bytes).
    Removing filter.o(.bss), (202 bytes).
    Removing filter.o(.data), (4 bytes).
    Removing kalman.o(i.KalmanFilter), (844 bytes).
    Removing kalman.o(i.kalman1_filter), (156 bytes).
    Removing kalman.o(i.kalman1_init), (32 bytes).
    Removing kalman.o(i.kalman2_filter), (502 bytes).
    Removing kalman.o(i.kalman2_init), (72 bytes).
    Removing kalman.o(i.kalman_2_Update), (488 bytes).
    Removing kalman.o(i.matrix_add), (72 bytes).
    Removing kalman.o(i.matrix_multi), (114 bytes).
    Removing kalman.o(i.matrix_sub), (72 bytes).
    Removing kalman.o(.bss), (64 bytes).
    Removing kalman.o(.data), (152 bytes).
    Removing imu.o(i.GetAccz), (12 bytes).
    Removing mymath.o(i.VariableParameter), (76 bytes).
    Removing mymath.o(i.arcsin), (164 bytes).
    Removing mymath.o(i.arctan), (82 bytes).
    Removing mymath.o(i.array_assign), (26 bytes).
    Removing mymath.o(i.array_astrict), (48 bytes).
    Removing mymath.o(i.cosine), (24 bytes).
    Removing mymath.o(i.data_limit), (38 bytes).
    Removing mymath.o(i.middle_3), (46 bytes).
    Removing mymath.o(i.my_deathzoom), (66 bytes).
    Removing mymath.o(i.my_deathzoom_2), (44 bytes).
    Removing mymath.o(i.safe_asin), (72 bytes).
    Removing mymath.o(i.sine), (196 bytes).
    Removing fsqrt.o(.text), (94 bytes).
    Removing cdcmple.o(.text), (48 bytes).

507 unused section(s) (total 25551 bytes) removed from the image.

==============================================================================

Image Symbol Table

    Local Symbols

    Symbol Name                              Value     Ov Type        Size  Object(Section)

    ../clib/../cmprslib/zerorunl2.c          0x00000000   Number         0  __dczerorl2.o ABSOLUTE
    ../clib/microlib/errno.c                 0x00000000   Number         0  errno.o ABSOLUTE
    ../clib/microlib/init/entry.s            0x00000000   Number         0  entry8a.o ABSOLUTE
    ../clib/microlib/init/entry.s            0x00000000   Number         0  entry2.o ABSOLUTE
    ../clib/microlib/init/entry.s            0x00000000   Number         0  entry7b.o ABSOLUTE
    ../clib/microlib/init/entry.s            0x00000000   Number         0  entry7a.o ABSOLUTE
    ../clib/microlib/init/entry.s            0x00000000   Number         0  entry5.o ABSOLUTE
    ../clib/microlib/init/entry.s            0x00000000   Number         0  entry11b.o ABSOLUTE
    ../clib/microlib/init/entry.s            0x00000000   Number         0  entry11a.o ABSOLUTE
    ../clib/microlib/init/entry.s            0x00000000   Number         0  entry10b.o ABSOLUTE
    ../clib/microlib/init/entry.s            0x00000000   Number         0  entry10a.o ABSOLUTE
    ../clib/microlib/init/entry.s            0x00000000   Number         0  entry9b.o ABSOLUTE
    ../clib/microlib/init/entry.s            0x00000000   Number         0  entry.o ABSOLUTE
    ../clib/microlib/init/entry.s            0x00000000   Number         0  entry9a.o ABSOLUTE
    ../clib/microlib/init/entry.s            0x00000000   Number         0  entry8b.o ABSOLUTE
    ../clib/microlib/longlong.c              0x00000000   Number         0  llshl.o ABSOLUTE
    ../clib/microlib/longlong.c              0x00000000   Number         0  llushr.o ABSOLUTE
    ../clib/microlib/longlong.c              0x00000000   Number         0  llsshr.o ABSOLUTE
    ../clib/microlib/string/memcpy.c         0x00000000   Number         0  memcpya.o ABSOLUTE
    ../clib/microlib/string/memcpy.c         0x00000000   Number         0  memcpyb.o ABSOLUTE
    ../clib/microlib/string/memset.c         0x00000000   Number         0  memseta.o ABSOLUTE
    ../clib/microlib/stubs.s                 0x00000000   Number         0  iusefp.o ABSOLUTE
    ../fplib/microlib/d2f.c                  0x00000000   Number         0  d2f.o ABSOLUTE
    ../fplib/microlib/f2d.c                  0x00000000   Number         0  f2d.o ABSOLUTE
    ../fplib/microlib/fpadd.c                0x00000000   Number         0  fadd.o ABSOLUTE
    ../fplib/microlib/fpadd.c                0x00000000   Number         0  dadd.o ABSOLUTE
    ../fplib/microlib/fpdiv.c                0x00000000   Number         0  fdiv.o ABSOLUTE
    ../fplib/microlib/fpdiv.c                0x00000000   Number         0  ddiv.o ABSOLUTE
    ../fplib/microlib/fpepilogue.c           0x00000000   Number         0  fepilogue.o ABSOLUTE
    ../fplib/microlib/fpepilogue.c           0x00000000   Number         0  depilogue.o ABSOLUTE
    ../fplib/microlib/fpfix.c                0x00000000   Number         0  ffixi.o ABSOLUTE
    ../fplib/microlib/fpfix.c                0x00000000   Number         0  dfixui.o ABSOLUTE
    ../fplib/microlib/fpfix.c                0x00000000   Number         0  ffixui.o ABSOLUTE
    ../fplib/microlib/fpflt.c                0x00000000   Number         0  ffltui.o ABSOLUTE
    ../fplib/microlib/fpflt.c                0x00000000   Number         0  fflti.o ABSOLUTE
    ../fplib/microlib/fpmul.c                0x00000000   Number         0  fmul.o ABSOLUTE
    ../fplib/microlib/fpmul.c                0x00000000   Number         0  dmul.o ABSOLUTE
    ../fplib/microlib/fpscalb.c              0x00000000   Number         0  dscalb.o ABSOLUTE
    ../fplib/microlib/fpscalb.c              0x00000000   Number         0  fscalb.o ABSOLUTE
    ../fplib/microlib/fpsqrt.c               0x00000000   Number         0  fsqrt.o ABSOLUTE
    ../fplib/microlib/fpsqrt.c               0x00000000   Number         0  dsqrt.o ABSOLUTE
    ../mathlib/asin.c                        0x00000000   Number         0  asin_x.o ABSOLUTE
    ../mathlib/asin.c                        0x00000000   Number         0  asin.o ABSOLUTE
    ../mathlib/asinf.c                       0x00000000   Number         0  asinf.o ABSOLUTE
    ../mathlib/asinf.c                       0x00000000   Number         0  asinf_x.o ABSOLUTE
    ../mathlib/atan2f.c                      0x00000000   Number         0  atan2f.o ABSOLUTE
    ../mathlib/atan2f.c                      0x00000000   Number         0  atan2f_x.o ABSOLUTE
    ../mathlib/dunder.c                      0x00000000   Number         0  dunder.o ABSOLUTE
    ../mathlib/fpclassify.c                  0x00000000   Number         0  fpclassify.o ABSOLUTE
    ../mathlib/fpclassifyf.c                 0x00000000   Number         0  fpclassifyf.o ABSOLUTE
    ../mathlib/funder.c                      0x00000000   Number         0  funder.o ABSOLUTE
    ../mathlib/poly.c                        0x00000000   Number         0  poly.o ABSOLUTE
    ../mathlib/sqrt.c                        0x00000000   Number         0  sqrt_x.o ABSOLUTE
    ../mathlib/sqrt.c                        0x00000000   Number         0  sqrt.o ABSOLUTE
    ../mathlib/sqrtf.c                       0x00000000   Number         0  sqrtf.o ABSOLUTE
    ../mathlib/sqrtf.c                       0x00000000   Number         0  sqrtf_x.o ABSOLUTE
    CONFIG\ADC.c                             0x00000000   Number         0  adc.o ABSOLUTE
    CONFIG\GPIO.c                            0x00000000   Number         0  gpio.o ABSOLUTE
    CONFIG\IIC_SOFTWARE.c                    0x00000000   Number         0  iic_software.o ABSOLUTE
    CONFIG\Spi.c                             0x00000000   Number         0  spi.o ABSOLUTE
    CONFIG\TIM.c                             0x00000000   Number         0  tim.o ABSOLUTE
    CONFIG\USART2.c                          0x00000000   Number         0  usart2.o ABSOLUTE
    CONFIG\USART3.c                          0x00000000   Number         0  usart3.o ABSOLUTE
    CONFIG\Uart1.c                           0x00000000   Number         0  uart1.o ABSOLUTE
    HAL\ANO_DT.c                             0x00000000   Number         0  ano_dt.o ABSOLUTE
    HAL\ANO_Data_Transfer.c                  0x00000000   Number         0  ano_data_transfer.o ABSOLUTE
    HAL\WIFI_UFO.c                           0x00000000   Number         0  wifi_ufo.o ABSOLUTE
    HAL\control.c                            0x00000000   Number         0  control.o ABSOLUTE
    HAL\remote.c                             0x00000000   Number         0  remote.o ABSOLUTE
    HARDWARE\LED.c                           0x00000000   Number         0  led.o ABSOLUTE
    HARDWARE\mpu6050.c                       0x00000000   Number         0  mpu6050.o ABSOLUTE
    HARDWARE\nrf24l01.c                      0x00000000   Number         0  nrf24l01.o ABSOLUTE
    Lib\src\misc.c                           0x00000000   Number         0  misc.o ABSOLUTE
    Lib\src\stm32f10x_adc.c                  0x00000000   Number         0  stm32f10x_adc.o ABSOLUTE
    Lib\src\stm32f10x_bkp.c                  0x00000000   Number         0  stm32f10x_bkp.o ABSOLUTE
    Lib\src\stm32f10x_can.c                  0x00000000   Number         0  stm32f10x_can.o ABSOLUTE
    Lib\src\stm32f10x_cec.c                  0x00000000   Number         0  stm32f10x_cec.o ABSOLUTE
    Lib\src\stm32f10x_crc.c                  0x00000000   Number         0  stm32f10x_crc.o ABSOLUTE
    Lib\src\stm32f10x_dac.c                  0x00000000   Number         0  stm32f10x_dac.o ABSOLUTE
    Lib\src\stm32f10x_dbgmcu.c               0x00000000   Number         0  stm32f10x_dbgmcu.o ABSOLUTE
    Lib\src\stm32f10x_dma.c                  0x00000000   Number         0  stm32f10x_dma.o ABSOLUTE
    Lib\src\stm32f10x_exti.c                 0x00000000   Number         0  stm32f10x_exti.o ABSOLUTE
    Lib\src\stm32f10x_flash.c                0x00000000   Number         0  stm32f10x_flash.o ABSOLUTE
    Lib\src\stm32f10x_fsmc.c                 0x00000000   Number         0  stm32f10x_fsmc.o ABSOLUTE
    Lib\src\stm32f10x_gpio.c                 0x00000000   Number         0  stm32f10x_gpio.o ABSOLUTE
    Lib\src\stm32f10x_i2c.c                  0x00000000   Number         0  stm32f10x_i2c.o ABSOLUTE
    Lib\src\stm32f10x_iwdg.c                 0x00000000   Number         0  stm32f10x_iwdg.o ABSOLUTE
    Lib\src\stm32f10x_pwr.c                  0x00000000   Number         0  stm32f10x_pwr.o ABSOLUTE
    Lib\src\stm32f10x_rcc.c                  0x00000000   Number         0  stm32f10x_rcc.o ABSOLUTE
    Lib\src\stm32f10x_rtc.c                  0x00000000   Number         0  stm32f10x_rtc.o ABSOLUTE
    Lib\src\stm32f10x_sdio.c                 0x00000000   Number         0  stm32f10x_sdio.o ABSOLUTE
    Lib\src\stm32f10x_spi.c                  0x00000000   Number         0  stm32f10x_spi.o ABSOLUTE
    Lib\src\stm32f10x_tim.c                  0x00000000   Number         0  stm32f10x_tim.o ABSOLUTE
    Lib\src\stm32f10x_usart.c                0x00000000   Number         0  stm32f10x_usart.o ABSOLUTE
    Lib\src\stm32f10x_wwdg.c                 0x00000000   Number         0  stm32f10x_wwdg.o ABSOLUTE
    MATH\filter.c                            0x00000000   Number         0  filter.o ABSOLUTE
    MATH\imu.c                               0x00000000   Number         0  imu.o ABSOLUTE
    MATH\kalman.c                            0x00000000   Number         0  kalman.o ABSOLUTE
    MATH\myMath.c                            0x00000000   Number         0  mymath.o ABSOLUTE
    MATH\pid.c                               0x00000000   Number         0  pid.o ABSOLUTE
    StartUp\\core_cm3.c                      0x00000000   Number         0  core_cm3.o ABSOLUTE
    StartUp\core_cm3.c                       0x00000000   Number         0  core_cm3.o ABSOLUTE
    StartUp\startup_stm32f10x_md.s           0x00000000   Number         0  startup_stm32f10x_md.o ABSOLUTE
    StartUp\stm32f10x_it.c                   0x00000000   Number         0  stm32f10x_it.o ABSOLUTE
    StartUp\system_stm32f10x.c               0x00000000   Number         0  system_stm32f10x.o ABSOLUTE
    USER\INIT.c                              0x00000000   Number         0  init.o ABSOLUTE
    USER\delay.c                             0x00000000   Number         0  delay.o ABSOLUTE
    USER\main.c                              0x00000000   Number         0  main.o ABSOLUTE
    USER\scheduler.c                         0x00000000   Number         0  scheduler.o ABSOLUTE
    USER\sys.c                               0x00000000   Number         0  sys.o ABSOLUTE
    cdcmple.s                                0x00000000   Number         0  cdcmple.o ABSOLUTE
    cfcmple.s                                0x00000000   Number         0  cfcmple.o ABSOLUTE
    cfrcmple.s                               0x00000000   Number         0  cfrcmple.o ABSOLUTE
    dc.s                                     0x00000000   Number         0  dc.o ABSOLUTE
    handlers.s                               0x00000000   Number         0  handlers.o ABSOLUTE
    init.s                                   0x00000000   Number         0  init.o ABSOLUTE
    RESET                                    0x08000000   Section      236  startup_stm32f10x_md.o(RESET)
    .ARM.Collect$$$$00000000                 0x080000ec   Section        0  entry.o(.ARM.Collect$$$$00000000)
    .ARM.Collect$$$$00000001                 0x080000ec   Section        4  entry2.o(.ARM.Collect$$$$00000001)
    .ARM.Collect$$$$00000004                 0x080000f0   Section        4  entry5.o(.ARM.Collect$$$$00000004)
    .ARM.Collect$$$$00000008                 0x080000f4   Section        0  entry7b.o(.ARM.Collect$$$$00000008)
    .ARM.Collect$$$$0000000A                 0x080000f4   Section        0  entry8b.o(.ARM.Collect$$$$0000000A)
    .ARM.Collect$$$$0000000B                 0x080000f4   Section        8  entry9a.o(.ARM.Collect$$$$0000000B)
    .ARM.Collect$$$$0000000D                 0x080000fc   Section        0  entry10a.o(.ARM.Collect$$$$0000000D)
    .ARM.Collect$$$$0000000F                 0x080000fc   Section        0  entry11a.o(.ARM.Collect$$$$0000000F)
    .ARM.Collect$$$$00002712                 0x080000fc   Section        4  entry2.o(.ARM.Collect$$$$00002712)
    __lit__00000000                          0x080000fc   Data           4  entry2.o(.ARM.Collect$$$$00002712)
    .text                                    0x08000100   Section       36  startup_stm32f10x_md.o(.text)
    .text                                    0x08000124   Section        0  memcpya.o(.text)
    .text                                    0x08000148   Section        0  memseta.o(.text)
    .text                                    0x0800016c   Section        0  fadd.o(.text)
    .text                                    0x0800021c   Section        0  fmul.o(.text)
    .text                                    0x08000280   Section        0  fdiv.o(.text)
    .text                                    0x080002fc   Section        0  dadd.o(.text)
    .text                                    0x0800044a   Section        0  dmul.o(.text)
    .text                                    0x0800052e   Section        0  fflti.o(.text)
    .text                                    0x08000540   Section        0  ffltui.o(.text)
    .text                                    0x0800054a   Section        0  ffixi.o(.text)
    .text                                    0x0800057c   Section        0  ffixui.o(.text)
    .text                                    0x080005a4   Section        0  dfixui.o(.text)
    .text                                    0x080005d6   Section        0  f2d.o(.text)
    .text                                    0x080005fc   Section        0  d2f.o(.text)
    .text                                    0x08000634   Section       20  cfcmple.o(.text)
    .text                                    0x08000648   Section       20  cfrcmple.o(.text)
    .text                                    0x0800065c   Section        0  llshl.o(.text)
    .text                                    0x0800067a   Section        0  llushr.o(.text)
    .text                                    0x0800069a   Section        0  llsshr.o(.text)
    .text                                    0x080006be   Section        0  fepilogue.o(.text)
    .text                                    0x080006be   Section        0  iusefp.o(.text)
    .text                                    0x0800072c   Section        0  fscalb.o(.text)
    .text                                    0x08000744   Section        0  depilogue.o(.text)
    .text                                    0x080007fe   Section        0  ddiv.o(.text)
    .text                                    0x080008dc   Section        0  dscalb.o(.text)
    .text                                    0x0800090c   Section       36  init.o(.text)
    .text                                    0x08000930   Section        0  dsqrt.o(.text)
    .text                                    0x080009d2   Section        0  __dczerorl2.o(.text)
    i.ALL_Init                               0x08000a28   Section        0  init.o(i.ALL_Init)
    i.ANO_DT_Data_Exchange                   0x08000a70   Section        0  ano_data_transfer.o(i.ANO_DT_Data_Exchange)
    i.ANO_DT_Data_Receive_Anl                0x0800101c   Section        0  ano_dt.o(i.ANO_DT_Data_Receive_Anl)
    i.ANO_DT_Data_Receive_Prepare            0x08001210   Section        0  ano_dt.o(i.ANO_DT_Data_Receive_Prepare)
    i.ANO_DT_Send_Check                      0x080012f8   Section        0  ano_dt.o(i.ANO_DT_Send_Check)
    ANO_DT_Send_Check                        0x080012f9   Thumb Code   118  ano_dt.o(i.ANO_DT_Send_Check)
    i.ANO_DT_Send_Data                       0x0800137c   Section        0  ano_data_transfer.o(i.ANO_DT_Send_Data)
    i.ANO_DT_Send_PID                        0x0800138c   Section        0  ano_data_transfer.o(i.ANO_DT_Send_PID)
    i.ANO_DT_Send_Power                      0x08001510   Section        0  ano_data_transfer.o(i.ANO_DT_Send_Power)
    i.ANO_DT_Send_RCData                     0x08001604   Section        0  ano_data_transfer.o(i.ANO_DT_Send_RCData)
    i.ANO_DT_Send_Senser                     0x08001768   Section        0  ano_data_transfer.o(i.ANO_DT_Send_Senser)
    i.ANO_DT_Send_Senser2                    0x08001904   Section        0  ano_data_transfer.o(i.ANO_DT_Send_Senser2)
    i.ANO_DT_Send_Status                     0x080019a4   Section        0  ano_data_transfer.o(i.ANO_DT_Send_Status)
    i.ANO_DT_Send_speed                      0x08001aec   Section        0  ano_data_transfer.o(i.ANO_DT_Send_speed)
    i.ANO_NRF_Check_Event                    0x08001ba0   Section        0  nrf24l01.o(i.ANO_NRF_Check_Event)
    i.ANO_NRF_Init                           0x08001c00   Section        0  nrf24l01.o(i.ANO_NRF_Init)
    i.ANO_NRF_TxPacket_AP                    0x08001cfc   Section        0  nrf24l01.o(i.ANO_NRF_TxPacket_AP)
    i.ANO_Uart1_Init                         0x08001d24   Section        0  uart1.o(i.ANO_Uart1_Init)
    i.ANTO_Send                              0x08001df8   Section        0  ano_dt.o(i.ANTO_Send)
    ANTO_Send                                0x08001df9   Thumb Code   902  ano_dt.o(i.ANTO_Send)
    i.ANTO_polling                           0x080021d8   Section        0  ano_dt.o(i.ANTO_polling)
    i.BusFault_Handler                       0x08002474   Section        0  stm32f10x_it.o(i.BusFault_Handler)
    i.CascadePID                             0x08002478   Section        0  pid.o(i.CascadePID)
    i.DebugMon_Handler                       0x08002496   Section        0  stm32f10x_it.o(i.DebugMon_Handler)
    i.Duty_1000ms                            0x08002498   Section        0  scheduler.o(i.Duty_1000ms)
    i.Duty_10ms                              0x0800255c   Section        0  scheduler.o(i.Duty_10ms)
    i.Duty_20ms                              0x08002580   Section        0  scheduler.o(i.Duty_20ms)
    i.Duty_2ms                               0x080025a4   Section        0  scheduler.o(i.Duty_2ms)
    i.Duty_4ms                               0x080025d4   Section        0  scheduler.o(i.Duty_4ms)
    i.Duty_50ms                              0x08002600   Section        0  scheduler.o(i.Duty_50ms)
    i.Duty_6ms                               0x08002628   Section        0  scheduler.o(i.Duty_6ms)
    i.Flag_Check                             0x0800265c   Section        0  ano_data_transfer.o(i.Flag_Check)
    i.FlightPidControl                       0x08002704   Section        0  control.o(i.FlightPidControl)
    i.GPIO_Init                              0x08002844   Section        0  stm32f10x_gpio.o(i.GPIO_Init)
    i.GPIO_PinRemapConfig                    0x0800295c   Section        0  stm32f10x_gpio.o(i.GPIO_PinRemapConfig)
    i.GPIO_SetBits                           0x080029ec   Section        0  stm32f10x_gpio.o(i.GPIO_SetBits)
    i.GetAngle                               0x080029f0   Section        0  imu.o(i.GetAngle)
    i.GetLockCode                            0x0800315c   Section        0  init.o(i.GetLockCode)
    i.GetSysTime_us                          0x08003170   Section        0  delay.o(i.GetSysTime_us)
    i.HardFault_Handler                      0x080031b4   Section        0  stm32f10x_it.o(i.HardFault_Handler)
    i.I2c_Ack                                0x080031b8   Section        0  iic_software.o(i.I2c_Ack)
    I2c_Ack                                  0x080031b9   Thumb Code   198  iic_software.o(i.I2c_Ack)
    i.I2c_NoAck                              0x08003284   Section        0  iic_software.o(i.I2c_NoAck)
    I2c_NoAck                                0x08003285   Thumb Code   200  iic_software.o(i.I2c_NoAck)
    i.I2c_ReadByte                           0x08003350   Section        0  iic_software.o(i.I2c_ReadByte)
    I2c_ReadByte                             0x08003351   Thumb Code   188  iic_software.o(i.I2c_ReadByte)
    i.I2c_SendByte                           0x08003410   Section        0  iic_software.o(i.I2c_SendByte)
    I2c_SendByte                             0x08003411   Thumb Code   186  iic_software.o(i.I2c_SendByte)
    i.I2c_Start                              0x080034d0   Section        0  iic_software.o(i.I2c_Start)
    I2c_Start                                0x080034d1   Thumb Code   144  iic_software.o(i.I2c_Start)
    i.I2c_Stop                               0x08003564   Section        0  iic_software.o(i.I2c_Stop)
    I2c_Stop                                 0x08003565   Thumb Code   152  iic_software.o(i.I2c_Stop)
    i.I2c_WaitAck                            0x08003600   Section        0  iic_software.o(i.I2c_WaitAck)
    I2c_WaitAck                              0x08003601   Thumb Code   176  iic_software.o(i.I2c_WaitAck)
    i.IIC_Init                               0x080036b4   Section        0  iic_software.o(i.IIC_Init)
    i.IIC_Read_One_Byte                      0x080036e0   Section        0  iic_software.o(i.IIC_Read_One_Byte)
    i.IIC_Write_One_Byte                     0x08003744   Section        0  iic_software.o(i.IIC_Write_One_Byte)
    i.IIC_read_Bytes                         0x08003788   Section        0  iic_software.o(i.IIC_read_Bytes)
    i.IWDG_Enable                            0x08003808   Section        0  stm32f10x_iwdg.o(i.IWDG_Enable)
    i.IWDG_Feed                              0x08003818   Section        0  main.o(i.IWDG_Feed)
    i.IWDG_Init                              0x08003820   Section        0  main.o(i.IWDG_Init)
    i.IWDG_ReloadCounter                     0x08003844   Section        0  stm32f10x_iwdg.o(i.IWDG_ReloadCounter)
    i.IWDG_SetPrescaler                      0x08003854   Section        0  stm32f10x_iwdg.o(i.IWDG_SetPrescaler)
    i.IWDG_SetReload                         0x08003860   Section        0  stm32f10x_iwdg.o(i.IWDG_SetReload)
    i.IWDG_WriteAccessCmd                    0x0800386c   Section        0  stm32f10x_iwdg.o(i.IWDG_WriteAccessCmd)
    i.Key_Function                           0x08003878   Section        0  wifi_ufo.o(i.Key_Function)
    Key_Function                             0x08003879   Thumb Code    78  wifi_ufo.o(i.Key_Function)
    i.LEDInit                                0x080038d4   Section        0  led.o(i.LEDInit)
    i.Loop_check                             0x08003918   Section        0  scheduler.o(i.Loop_check)
    i.MemManage_Handler                      0x08003984   Section        0  stm32f10x_it.o(i.MemManage_Handler)
    i.MotorControl                           0x08003988   Section        0  control.o(i.MotorControl)
    i.MpuGetData                             0x08003bfc   Section        0  mpu6050.o(i.MpuGetData)
    i.MpuGetOffset                           0x08003cf0   Section        0  mpu6050.o(i.MpuGetOffset)
    i.MpuInit                                0x08003e18   Section        0  mpu6050.o(i.MpuInit)
    i.NMI_Handler                            0x08003ec0   Section        0  stm32f10x_it.o(i.NMI_Handler)
    i.NRF24L01_Check                         0x08003ec4   Section        0  nrf24l01.o(i.NRF24L01_Check)
    i.NRF24L01_Configuration                 0x08003f10   Section        0  nrf24l01.o(i.NRF24L01_Configuration)
    i.NRF24L01_Read_Buf                      0x08003f9c   Section        0  nrf24l01.o(i.NRF24L01_Read_Buf)
    i.NRF24L01_Read_Reg                      0x08003fe0   Section        0  nrf24l01.o(i.NRF24L01_Read_Reg)
    i.NRF24L01_Write_Buf                     0x0800400c   Section        0  nrf24l01.o(i.NRF24L01_Write_Buf)
    i.NRF24L01_Write_Reg                     0x08004050   Section        0  nrf24l01.o(i.NRF24L01_Write_Reg)
    i.NRF24L01_init                          0x08004080   Section        0  nrf24l01.o(i.NRF24L01_init)
    i.NRF_Connect                            0x080040e4   Section        0  nrf24l01.o(i.NRF_Connect)
    i.NVIC_Init                              0x08004144   Section        0  misc.o(i.NVIC_Init)
    i.NVIC_PriorityGroupConfig               0x080041b4   Section        0  misc.o(i.NVIC_PriorityGroupConfig)
    i.PendSV_Handler                         0x080041c8   Section        0  stm32f10x_it.o(i.PendSV_Handler)
    i.PilotLED                               0x080041cc   Section        0  led.o(i.PilotLED)
    i.Q_rsqrt                                0x08004304   Section        0  mymath.o(i.Q_rsqrt)
    i.RCC_APB1PeriphClockCmd                 0x08004354   Section        0  stm32f10x_rcc.o(i.RCC_APB1PeriphClockCmd)
    i.RCC_APB2PeriphClockCmd                 0x08004374   Section        0  stm32f10x_rcc.o(i.RCC_APB2PeriphClockCmd)
    i.RCC_GetClocksFreq                      0x08004394   Section        0  stm32f10x_rcc.o(i.RCC_GetClocksFreq)
    i.RC_Analy                               0x08004468   Section        0  remote.o(i.RC_Analy)
    i.Rc_Connect                             0x0800459c   Section        0  remote.o(i.Rc_Connect)
    i.SPI_Cmd                                0x080045aa   Section        0  stm32f10x_spi.o(i.SPI_Cmd)
    i.SPI_Config                             0x080045c4   Section        0  spi.o(i.SPI_Config)
    i.SPI_I2S_GetFlagStatus                  0x08004658   Section        0  stm32f10x_spi.o(i.SPI_I2S_GetFlagStatus)
    i.SPI_I2S_ReceiveData                    0x0800466a   Section        0  stm32f10x_spi.o(i.SPI_I2S_ReceiveData)
    i.SPI_I2S_SendData                       0x08004670   Section        0  stm32f10x_spi.o(i.SPI_I2S_SendData)
    i.SPI_Init                               0x08004674   Section        0  stm32f10x_spi.o(i.SPI_Init)
    i.SPI_RW                                 0x080046b0   Section        0  spi.o(i.SPI_RW)
    i.SVC_Handler                            0x080046e8   Section        0  stm32f10x_it.o(i.SVC_Handler)
    i.SetSysClock                            0x080046ea   Section        0  system_stm32f10x.o(i.SetSysClock)
    SetSysClock                              0x080046eb   Thumb Code     8  system_stm32f10x.o(i.SetSysClock)
    i.SetSysClockTo72                        0x080046f4   Section        0  system_stm32f10x.o(i.SetSysClockTo72)
    SetSysClockTo72                          0x080046f5   Thumb Code   214  system_stm32f10x.o(i.SetSysClockTo72)
    i.SysTick_Handler                        0x080047d4   Section        0  stm32f10x_it.o(i.SysTick_Handler)
    i.SysTick_IRQ                            0x080047dc   Section        0  delay.o(i.SysTick_IRQ)
    i.SystemInit                             0x08004824   Section        0  system_stm32f10x.o(i.SystemInit)
    i.TIM2_PWM_Config                        0x08004884   Section        0  tim.o(i.TIM2_PWM_Config)
    i.TIM3_PWM_Config                        0x08004964   Section        0  tim.o(i.TIM3_PWM_Config)
    i.TIM_ARRPreloadConfig                   0x08004a54   Section        0  stm32f10x_tim.o(i.TIM_ARRPreloadConfig)
    i.TIM_Cmd                                0x08004a6c   Section        0  stm32f10x_tim.o(i.TIM_Cmd)
    i.TIM_ITConfig                           0x08004a84   Section        0  stm32f10x_tim.o(i.TIM_ITConfig)
    i.TIM_OC1Init                            0x08004a98   Section        0  stm32f10x_tim.o(i.TIM_OC1Init)
    i.TIM_OC1PreloadConfig                   0x08004b30   Section        0  stm32f10x_tim.o(i.TIM_OC1PreloadConfig)
    i.TIM_OC2Init                            0x08004b44   Section        0  stm32f10x_tim.o(i.TIM_OC2Init)
    i.TIM_OC2PreloadConfig                   0x08004be8   Section        0  stm32f10x_tim.o(i.TIM_OC2PreloadConfig)
    i.TIM_OC3Init                            0x08004c04   Section        0  stm32f10x_tim.o(i.TIM_OC3Init)
    i.TIM_OC3PreloadConfig                   0x08004ca4   Section        0  stm32f10x_tim.o(i.TIM_OC3PreloadConfig)
    i.TIM_OC4Init                            0x08004cb8   Section        0  stm32f10x_tim.o(i.TIM_OC4Init)
    i.TIM_OC4PreloadConfig                   0x08004d34   Section        0  stm32f10x_tim.o(i.TIM_OC4PreloadConfig)
    i.TIM_TimeBaseInit                       0x08004d50   Section        0  stm32f10x_tim.o(i.TIM_TimeBaseInit)
    i.USART1_IRQHandler                      0x08004df4   Section        0  uart1.o(i.USART1_IRQHandler)
    i.USART2_IRQHandler                      0x08004e74   Section        0  usart2.o(i.USART2_IRQHandler)
    i.USART3_Config                          0x08004ef8   Section        0  usart3.o(i.USART3_Config)
    i.USART3_IRQHandler                      0x08004fc4   Section        0  ano_dt.o(i.USART3_IRQHandler)
    i.USART3_SendByte                        0x0800503c   Section        0  usart3.o(i.USART3_SendByte)
    i.USART_ClockInit                        0x0800506c   Section        0  stm32f10x_usart.o(i.USART_ClockInit)
    i.USART_Cmd                              0x0800508e   Section        0  stm32f10x_usart.o(i.USART_Cmd)
    i.USART_GetFlagStatus                    0x080050a6   Section        0  stm32f10x_usart.o(i.USART_GetFlagStatus)
    i.USART_ITConfig                         0x080050c0   Section        0  stm32f10x_usart.o(i.USART_ITConfig)
    i.USART_Init                             0x0800510c   Section        0  stm32f10x_usart.o(i.USART_Init)
    i.USART_ReceiveData                      0x080051e4   Section        0  stm32f10x_usart.o(i.USART_ReceiveData)
    i.USART_SendData                         0x080051ee   Section        0  stm32f10x_usart.o(i.USART_SendData)
    i.UsageFault_Handler                     0x080051f6   Section        0  stm32f10x_it.o(i.UsageFault_Handler)
    i.WIFI_UFO_Connect                       0x080051fc   Section        0  wifi_ufo.o(i.WIFI_UFO_Connect)
    i.WIFI_UFO_Data_Receive_Anl              0x08005278   Section        0  wifi_ufo.o(i.WIFI_UFO_Data_Receive_Anl)
    i.__ARM_fpclassify                       0x080053f0   Section        0  fpclassify.o(i.__ARM_fpclassify)
    i.__ARM_fpclassifyf                      0x08005418   Section        0  fpclassifyf.o(i.__ARM_fpclassifyf)
    i.__kernel_poly                          0x0800543e   Section        0  poly.o(i.__kernel_poly)
    i.__mathlib_dbl_infnan                   0x080054e8   Section        0  dunder.o(i.__mathlib_dbl_infnan)
    i.__mathlib_dbl_invalid                  0x080054ee   Section        0  dunder.o(i.__mathlib_dbl_invalid)
    i.__mathlib_dbl_underflow                0x080054fc   Section        0  dunder.o(i.__mathlib_dbl_underflow)
    i.__mathlib_flt_infnan2                  0x0800550c   Section        0  funder.o(i.__mathlib_flt_infnan2)
    i.__mathlib_flt_underflow                0x08005510   Section        0  funder.o(i.__mathlib_flt_underflow)
    i.__scatterload_copy                     0x0800551a   Section       14  handlers.o(i.__scatterload_copy)
    i.__scatterload_null                     0x08005528   Section        2  handlers.o(i.__scatterload_null)
    i.__scatterload_zeroinit                 0x0800552a   Section       14  handlers.o(i.__scatterload_zeroinit)
    i.__set_errno                            0x08005538   Section        0  errno.o(i.__set_errno)
    i.asin                                   0x08005544   Section        0  asin.o(i.asin)
    i.atan2f                                 0x080057b4   Section        0  atan2f.o(i.atan2f)
    i.cycleCounterInit                       0x08005a10   Section        0  delay.o(i.cycleCounterInit)
    i.delay_ms                               0x08005a34   Section        0  delay.o(i.delay_ms)
    i.kalman_1                               0x08005a64   Section        0  kalman.o(i.kalman_1)
    i.main                                   0x08005abc   Section        0  main.o(i.main)
    i.main_loop                              0x08005b40   Section        0  scheduler.o(i.main_loop)
    i.pidRest                                0x08005be4   Section        0  pid.o(i.pidRest)
    i.pidUpdate                              0x08005c10   Section        0  pid.o(i.pidUpdate)
    i.pid_param_Init                         0x08005c7c   Section        0  init.o(i.pid_param_Init)
    i.remote_unlock                          0x08005d50   Section        0  remote.o(i.remote_unlock)
    i.sqrt                                   0x08005e70   Section        0  sqrt.o(i.sqrt)
    .constdata                               0x08005ebc   Section       10  nrf24l01.o(.constdata)
    .constdata                               0x08005ec8   Section       24  mymath.o(.constdata)
    .constdata                               0x08005ee0   Section       80  asin.o(.constdata)
    pS                                       0x08005ee0   Data          48  asin.o(.constdata)
    qS                                       0x08005f10   Data          32  asin.o(.constdata)
    .data                                    0x20000000   Section       20  system_stm32f10x.o(.data)
    .data                                    0x20000014   Section       10  delay.o(.data)
    usTicks                                  0x20000014   Data           4  delay.o(.data)
    cnt                                      0x2000001d   Data           1  delay.o(.data)
    .data                                    0x20000020   Section        9  scheduler.o(.data)
    .data                                    0x2000002c   Section       19  init.o(.data)
    .data                                    0x2000003f   Section       20  stm32f10x_rcc.o(.data)
    APBAHBPrescTable                         0x2000003f   Data          16  stm32f10x_rcc.o(.data)
    ADCPrescTable                            0x2000004f   Data           4  stm32f10x_rcc.o(.data)
    .data                                    0x20000054   Section       10  adc.o(.data)
    cnt0                                     0x2000005a   Data           2  adc.o(.data)
    cnt1                                     0x2000005c   Data           2  adc.o(.data)
    .data                                    0x2000005e   Section        3  uart1.o(.data)
    .data                                    0x20000061   Section        2  usart2.o(.data)
    .data                                    0x20000064   Section       12  led.o(.data)
    LastTime                                 0x2000006c   Data           4  led.o(.data)
    .data                                    0x20000070   Section       10  nrf24l01.o(.data)
    Connect_flag                             0x20000079   Data           1  nrf24l01.o(.data)
    .data                                    0x2000007c   Section       76  mpu6050.o(.data)
    pMpu                                     0x2000007c   Data           4  mpu6050.o(.data)
    ekf                                      0x20000080   Data          72  mpu6050.o(.data)
    .data                                    0x200000c8   Section       20  ano_dt.o(.data)
    ANTO_Recived_flag                        0x200000ce   Data           1  ano_dt.o(.data)
    CheckSend                                0x200000cf   Data           7  ano_dt.o(.data)
    status                                   0x200000d8   Data           1  ano_dt.o(.data)
    _data_len                                0x200000d9   Data           1  ano_dt.o(.data)
    _data_cnt                                0x200000da   Data           1  ano_dt.o(.data)
    state                                    0x200000db   Data           1  ano_dt.o(.data)
    .data                                    0x200000dc   Section       13  remote.o(.data)
    cnt                                      0x200000e0   Data           2  remote.o(.data)
    cnt_tmp                                  0x200000e2   Data           2  remote.o(.data)
    status                                   0x200000e4   Data           1  remote.o(.data)
    cnt                                      0x200000e6   Data           2  remote.o(.data)
    cnt                                      0x200000e8   Data           1  remote.o(.data)
    .data                                    0x200000ec   Section       58  control.o(.data)
    status                                   0x20000124   Data           1  control.o(.data)
    status                                   0x20000125   Data           1  control.o(.data)
    .data                                    0x20000126   Section       26  wifi_ufo.o(.data)
    wifi_RxBuffer                            0x20000126   Data           8  wifi_ufo.o(.data)
    wifi_PUI                                 0x20000132   Data           1  wifi_ufo.o(.data)
    wifi_RxBuffer22                          0x20000133   Data           8  wifi_ufo.o(.data)
    _data_cnt                                0x2000013b   Data           1  wifi_ufo.o(.data)
    state                                    0x2000013c   Data           1  wifi_ufo.o(.data)
    temp                                     0x2000013d   Data           1  wifi_ufo.o(.data)
    Connect_flag                             0x2000013e   Data           1  wifi_ufo.o(.data)
    count10                                  0x2000013f   Data           1  wifi_ufo.o(.data)
    .data                                    0x20000140   Section        6  ano_data_transfer.o(.data)
    .data                                    0x20000148   Section       28  imu.o(.data)
    NormAccz                                 0x20000148   Data           4  imu.o(.data)
    KpDef                                    0x2000014c   Data           4  imu.o(.data)
    KiDef                                    0x20000150   Data           4  imu.o(.data)
    NumQ                                     0x20000154   Data          16  imu.o(.data)
    .data                                    0x20000164   Section        4  errno.o(.data)
    _errno                                   0x20000164   Data           4  errno.o(.data)
    .bss                                     0x20000168   Section       60  scheduler.o(.bss)
    .bss                                     0x200001a4   Section     1652  init.o(.bss)
    .bss                                     0x20000818   Section      256  uart1.o(.bss)
    .bss                                     0x20000918   Section      256  usart2.o(.bss)
    .bss                                     0x20000a18   Section       64  nrf24l01.o(.bss)
    .bss                                     0x20000a58   Section       24  mpu6050.o(.bss)
    tBuff                                    0x20000a64   Data          12  mpu6050.o(.bss)
    .bss                                     0x20000a70   Section      378  ano_dt.o(.bss)
    RatePID                                  0x20000a70   Data          18  ano_dt.o(.bss)
    AnglePID                                 0x20000a82   Data          18  ano_dt.o(.bss)
    HighPID                                  0x20000a94   Data          18  ano_dt.o(.bss)
    HighPID4                                 0x20000aa6   Data          18  ano_dt.o(.bss)
    RxBuffer                                 0x20000bb8   Data          50  ano_dt.o(.bss)
    .bss                                     0x20000bea   Section       64  ano_data_transfer.o(.bss)
    .bss                                     0x20000c2c   Section       12  imu.o(.bss)
    GyroIntegError                           0x20000c2c   Data          12  imu.o(.bss)
    STACK                                    0x20000c38   Section     1024  startup_stm32f10x_md.o(STACK)

    Global Symbols

    Symbol Name                              Value     Ov Type        Size  Object(Section)

    BuildAttributes$$THM_ISAv4$P$D$K$B$S$PE$A:L22UL41UL21$X:L11$S22US41US21$IEEE1$IW$USESV6$~STKCKD$USESV7$~SHL$OTIME$ROPI$IEEEX$EBA8$MICROLIB$REQ8$PRES8$EABIv2 0x00000000   Number         0  anon$$obj.o ABSOLUTE
    __ARM_use_no_argv                        0x00000000   Number         0  main.o ABSOLUTE
    __cpp_initialize__aeabi_                  - Undefined Weak Reference
    __cxa_finalize                            - Undefined Weak Reference
    _clock_init                               - Undefined Weak Reference
    _microlib_exit                            - Undefined Weak Reference
    __Vectors_Size                           0x000000ec   Number         0  startup_stm32f10x_md.o ABSOLUTE
    __Vectors                                0x08000000   Data           4  startup_stm32f10x_md.o(RESET)
    __Vectors_End                            0x080000ec   Data           0  startup_stm32f10x_md.o(RESET)
    __main                                   0x080000ed   Thumb Code     0  entry.o(.ARM.Collect$$$$00000000)
    _main_stk                                0x080000ed   Thumb Code     0  entry2.o(.ARM.Collect$$$$00000001)
    _main_scatterload                        0x080000f1   Thumb Code     0  entry5.o(.ARM.Collect$$$$00000004)
    __main_after_scatterload                 0x080000f5   Thumb Code     0  entry5.o(.ARM.Collect$$$$00000004)
    _main_clock                              0x080000f5   Thumb Code     0  entry7b.o(.ARM.Collect$$$$00000008)
    _main_cpp_init                           0x080000f5   Thumb Code     0  entry8b.o(.ARM.Collect$$$$0000000A)
    _main_init                               0x080000f5   Thumb Code     0  entry9a.o(.ARM.Collect$$$$0000000B)
    __rt_final_cpp                           0x080000fd   Thumb Code     0  entry10a.o(.ARM.Collect$$$$0000000D)
    __rt_final_exit                          0x080000fd   Thumb Code     0  entry11a.o(.ARM.Collect$$$$0000000F)
    Reset_Handler                            0x08000101   Thumb Code     8  startup_stm32f10x_md.o(.text)
    ADC1_2_IRQHandler                        0x0800011b   Thumb Code     0  startup_stm32f10x_md.o(.text)
    CAN1_RX1_IRQHandler                      0x0800011b   Thumb Code     0  startup_stm32f10x_md.o(.text)
    CAN1_SCE_IRQHandler                      0x0800011b   Thumb Code     0  startup_stm32f10x_md.o(.text)
    DMA1_Channel1_IRQHandler                 0x0800011b   Thumb Code     0  startup_stm32f10x_md.o(.text)
    DMA1_Channel2_IRQHandler                 0x0800011b   Thumb Code     0  startup_stm32f10x_md.o(.text)
    DMA1_Channel3_IRQHandler                 0x0800011b   Thumb Code     0  startup_stm32f10x_md.o(.text)
    DMA1_Channel4_IRQHandler                 0x0800011b   Thumb Code     0  startup_stm32f10x_md.o(.text)
    DMA1_Channel5_IRQHandler                 0x0800011b   Thumb Code     0  startup_stm32f10x_md.o(.text)
    DMA1_Channel6_IRQHandler                 0x0800011b   Thumb Code     0  startup_stm32f10x_md.o(.text)
    DMA1_Channel7_IRQHandler                 0x0800011b   Thumb Code     0  startup_stm32f10x_md.o(.text)
    EXTI0_IRQHandler                         0x0800011b   Thumb Code     0  startup_stm32f10x_md.o(.text)
    EXTI15_10_IRQHandler                     0x0800011b   Thumb Code     0  startup_stm32f10x_md.o(.text)
    EXTI1_IRQHandler                         0x0800011b   Thumb Code     0  startup_stm32f10x_md.o(.text)
    EXTI2_IRQHandler                         0x0800011b   Thumb Code     0  startup_stm32f10x_md.o(.text)
    EXTI3_IRQHandler                         0x0800011b   Thumb Code     0  startup_stm32f10x_md.o(.text)
    EXTI4_IRQHandler                         0x0800011b   Thumb Code     0  startup_stm32f10x_md.o(.text)
    EXTI9_5_IRQHandler                       0x0800011b   Thumb Code     0  startup_stm32f10x_md.o(.text)
    FLASH_IRQHandler                         0x0800011b   Thumb Code     0  startup_stm32f10x_md.o(.text)
    I2C1_ER_IRQHandler                       0x0800011b   Thumb Code     0  startup_stm32f10x_md.o(.text)
    I2C1_EV_IRQHandler                       0x0800011b   Thumb Code     0  startup_stm32f10x_md.o(.text)
    I2C2_ER_IRQHandler                       0x0800011b   Thumb Code     0  startup_stm32f10x_md.o(.text)
    I2C2_EV_IRQHandler                       0x0800011b   Thumb Code     0  startup_stm32f10x_md.o(.text)
    PVD_IRQHandler                           0x0800011b   Thumb Code     0  startup_stm32f10x_md.o(.text)
    RCC_IRQHandler                           0x0800011b   Thumb Code     0  startup_stm32f10x_md.o(.text)
    RTCAlarm_IRQHandler                      0x0800011b   Thumb Code     0  startup_stm32f10x_md.o(.text)
    RTC_IRQHandler                           0x0800011b   Thumb Code     0  startup_stm32f10x_md.o(.text)
    SPI1_IRQHandler                          0x0800011b   Thumb Code     0  startup_stm32f10x_md.o(.text)
    SPI2_IRQHandler                          0x0800011b   Thumb Code     0  startup_stm32f10x_md.o(.text)
    TAMPER_IRQHandler                        0x0800011b   Thumb Code     0  startup_stm32f10x_md.o(.text)
    TIM1_BRK_IRQHandler                      0x0800011b   Thumb Code     0  startup_stm32f10x_md.o(.text)
    TIM1_CC_IRQHandler                       0x0800011b   Thumb Code     0  startup_stm32f10x_md.o(.text)
    TIM1_TRG_COM_IRQHandler                  0x0800011b   Thumb Code     0  startup_stm32f10x_md.o(.text)
    TIM1_UP_IRQHandler                       0x0800011b   Thumb Code     0  startup_stm32f10x_md.o(.text)
    TIM2_IRQHandler                          0x0800011b   Thumb Code     0  startup_stm32f10x_md.o(.text)
    TIM3_IRQHandler                          0x0800011b   Thumb Code     0  startup_stm32f10x_md.o(.text)
    TIM4_IRQHandler                          0x0800011b   Thumb Code     0  startup_stm32f10x_md.o(.text)
    USBWakeUp_IRQHandler                     0x0800011b   Thumb Code     0  startup_stm32f10x_md.o(.text)
    USB_HP_CAN1_TX_IRQHandler                0x0800011b   Thumb Code     0  startup_stm32f10x_md.o(.text)
    USB_LP_CAN1_RX0_IRQHandler               0x0800011b   Thumb Code     0  startup_stm32f10x_md.o(.text)
    WWDG_IRQHandler                          0x0800011b   Thumb Code     0  startup_stm32f10x_md.o(.text)
    __aeabi_memcpy                           0x08000125   Thumb Code    36  memcpya.o(.text)
    __aeabi_memcpy4                          0x08000125   Thumb Code     0  memcpya.o(.text)
    __aeabi_memcpy8                          0x08000125   Thumb Code     0  memcpya.o(.text)
    __aeabi_memset                           0x08000149   Thumb Code    14  memseta.o(.text)
    __aeabi_memset4                          0x08000149   Thumb Code     0  memseta.o(.text)
    __aeabi_memset8                          0x08000149   Thumb Code     0  memseta.o(.text)
    __aeabi_memclr                           0x08000157   Thumb Code     4  memseta.o(.text)
    __aeabi_memclr4                          0x08000157   Thumb Code     0  memseta.o(.text)
    __aeabi_memclr8                          0x08000157   Thumb Code     0  memseta.o(.text)
    _memset$wrapper                          0x0800015b   Thumb Code    18  memseta.o(.text)
    __aeabi_fadd                             0x0800016d   Thumb Code   164  fadd.o(.text)
    __aeabi_fsub                             0x08000211   Thumb Code     6  fadd.o(.text)
    __aeabi_frsub                            0x08000217   Thumb Code     6  fadd.o(.text)
    __aeabi_fmul                             0x0800021d   Thumb Code   100  fmul.o(.text)
    __aeabi_fdiv                             0x08000281   Thumb Code   124  fdiv.o(.text)
    __aeabi_dadd                             0x080002fd   Thumb Code   322  dadd.o(.text)
    __aeabi_dsub                             0x0800043f   Thumb Code     6  dadd.o(.text)
    __aeabi_drsub                            0x08000445   Thumb Code     6  dadd.o(.text)
    __aeabi_dmul                             0x0800044b   Thumb Code   228  dmul.o(.text)
    __aeabi_i2f                              0x0800052f   Thumb Code    18  fflti.o(.text)
    __aeabi_ui2f                             0x08000541   Thumb Code    10  ffltui.o(.text)
    __aeabi_f2iz                             0x0800054b   Thumb Code    50  ffixi.o(.text)
    __aeabi_f2uiz                            0x0800057d   Thumb Code    40  ffixui.o(.text)
    __aeabi_d2uiz                            0x080005a5   Thumb Code    50  dfixui.o(.text)
    __aeabi_f2d                              0x080005d7   Thumb Code    38  f2d.o(.text)
    __aeabi_d2f                              0x080005fd   Thumb Code    56  d2f.o(.text)
    __aeabi_cfcmpeq                          0x08000635   Thumb Code     0  cfcmple.o(.text)
    __aeabi_cfcmple                          0x08000635   Thumb Code    20  cfcmple.o(.text)
    __aeabi_cfrcmple                         0x08000649   Thumb Code    20  cfrcmple.o(.text)
    __aeabi_llsl                             0x0800065d   Thumb Code    30  llshl.o(.text)
    _ll_shift_l                              0x0800065d   Thumb Code     0  llshl.o(.text)
    __aeabi_llsr                             0x0800067b   Thumb Code    32  llushr.o(.text)
    _ll_ushift_r                             0x0800067b   Thumb Code     0  llushr.o(.text)
    __aeabi_lasr                             0x0800069b   Thumb Code    36  llsshr.o(.text)
    _ll_sshift_r                             0x0800069b   Thumb Code     0  llsshr.o(.text)
    __I$use$fp                               0x080006bf   Thumb Code     0  iusefp.o(.text)
    _float_round                             0x080006bf   Thumb Code    18  fepilogue.o(.text)
    _float_epilogue                          0x080006d1   Thumb Code    92  fepilogue.o(.text)
    __ARM_scalbnf                            0x0800072d   Thumb Code    24  fscalb.o(.text)
    scalbnf                                  0x0800072d   Thumb Code     0  fscalb.o(.text)
    _double_round                            0x08000745   Thumb Code    30  depilogue.o(.text)
    _double_epilogue                         0x08000763   Thumb Code   156  depilogue.o(.text)
    __aeabi_ddiv                             0x080007ff   Thumb Code   222  ddiv.o(.text)
    __ARM_scalbn                             0x080008dd   Thumb Code    46  dscalb.o(.text)
    scalbn                                   0x080008dd   Thumb Code     0  dscalb.o(.text)
    __scatterload                            0x0800090d   Thumb Code    28  init.o(.text)
    __scatterload_rt2                        0x0800090d   Thumb Code     0  init.o(.text)
    _dsqrt                                   0x08000931   Thumb Code   162  dsqrt.o(.text)
    __decompress                             0x080009d3   Thumb Code     0  __dczerorl2.o(.text)
    __decompress1                            0x080009d3   Thumb Code    86  __dczerorl2.o(.text)
    ALL_Init                                 0x08000a29   Thumb Code    58  init.o(i.ALL_Init)
    ANO_DT_Data_Exchange                     0x08000a71   Thumb Code  1410  ano_data_transfer.o(i.ANO_DT_Data_Exchange)
    ANO_DT_Data_Receive_Anl                  0x0800101d   Thumb Code   462  ano_dt.o(i.ANO_DT_Data_Receive_Anl)
    ANO_DT_Data_Receive_Prepare              0x08001211   Thumb Code   216  ano_dt.o(i.ANO_DT_Data_Receive_Prepare)
    ANO_DT_Send_Data                         0x0800137d   Thumb Code    16  ano_data_transfer.o(i.ANO_DT_Send_Data)
    ANO_DT_Send_PID                          0x0800138d   Thumb Code   382  ano_data_transfer.o(i.ANO_DT_Send_PID)
    ANO_DT_Send_Power                        0x08001511   Thumb Code   238  ano_data_transfer.o(i.ANO_DT_Send_Power)
    ANO_DT_Send_RCData                       0x08001605   Thumb Code   350  ano_data_transfer.o(i.ANO_DT_Send_RCData)
    ANO_DT_Send_Senser                       0x08001769   Thumb Code   406  ano_data_transfer.o(i.ANO_DT_Send_Senser)
    ANO_DT_Send_Senser2                      0x08001905   Thumb Code   154  ano_data_transfer.o(i.ANO_DT_Send_Senser2)
    ANO_DT_Send_Status                       0x080019a5   Thumb Code   318  ano_data_transfer.o(i.ANO_DT_Send_Status)
    ANO_DT_Send_speed                        0x08001aed   Thumb Code   176  ano_data_transfer.o(i.ANO_DT_Send_speed)
    ANO_NRF_Check_Event                      0x08001ba1   Thumb Code    86  nrf24l01.o(i.ANO_NRF_Check_Event)
    ANO_NRF_Init                             0x08001c01   Thumb Code   240  nrf24l01.o(i.ANO_NRF_Init)
    ANO_NRF_TxPacket_AP                      0x08001cfd   Thumb Code    36  nrf24l01.o(i.ANO_NRF_TxPacket_AP)
    ANO_Uart1_Init                           0x08001d25   Thumb Code   204  uart1.o(i.ANO_Uart1_Init)
    ANTO_polling                             0x080021d9   Thumb Code   592  ano_dt.o(i.ANTO_polling)
    BusFault_Handler                         0x08002475   Thumb Code     4  stm32f10x_it.o(i.BusFault_Handler)
    CascadePID                               0x08002479   Thumb Code    30  pid.o(i.CascadePID)
    DebugMon_Handler                         0x08002497   Thumb Code     2  stm32f10x_it.o(i.DebugMon_Handler)
    Duty_1000ms                              0x08002499   Thumb Code   142  scheduler.o(i.Duty_1000ms)
    Duty_10ms                                0x0800255d   Thumb Code    30  scheduler.o(i.Duty_10ms)
    Duty_20ms                                0x08002581   Thumb Code    30  scheduler.o(i.Duty_20ms)
    Duty_2ms                                 0x080025a5   Thumb Code    40  scheduler.o(i.Duty_2ms)
    Duty_4ms                                 0x080025d5   Thumb Code    38  scheduler.o(i.Duty_4ms)
    Duty_50ms                                0x08002601   Thumb Code    34  scheduler.o(i.Duty_50ms)
    Duty_6ms                                 0x08002629   Thumb Code    36  scheduler.o(i.Duty_6ms)
    Flag_Check                               0x0800265d   Thumb Code   134  ano_data_transfer.o(i.Flag_Check)
    FlightPidControl                         0x08002705   Thumb Code   272  control.o(i.FlightPidControl)
    GPIO_Init                                0x08002845   Thumb Code   278  stm32f10x_gpio.o(i.GPIO_Init)
    GPIO_PinRemapConfig                      0x0800295d   Thumb Code   138  stm32f10x_gpio.o(i.GPIO_PinRemapConfig)
    GPIO_SetBits                             0x080029ed   Thumb Code     4  stm32f10x_gpio.o(i.GPIO_SetBits)
    GetAngle                                 0x080029f1   Thumb Code  1880  imu.o(i.GetAngle)
    GetLockCode                              0x0800315d   Thumb Code    10  init.o(i.GetLockCode)
    GetSysTime_us                            0x08003171   Thumb Code    58  delay.o(i.GetSysTime_us)
    HardFault_Handler                        0x080031b5   Thumb Code     4  stm32f10x_it.o(i.HardFault_Handler)
    IIC_Init                                 0x080036b5   Thumb Code    38  iic_software.o(i.IIC_Init)
    IIC_Read_One_Byte                        0x080036e1   Thumb Code   100  iic_software.o(i.IIC_Read_One_Byte)
    IIC_Write_One_Byte                       0x08003745   Thumb Code    68  iic_software.o(i.IIC_Write_One_Byte)
    IIC_read_Bytes                           0x08003789   Thumb Code   128  iic_software.o(i.IIC_read_Bytes)
    IWDG_Enable                              0x08003809   Thumb Code    10  stm32f10x_iwdg.o(i.IWDG_Enable)
    IWDG_Feed                                0x08003819   Thumb Code     8  main.o(i.IWDG_Feed)
    IWDG_Init                                0x08003821   Thumb Code    36  main.o(i.IWDG_Init)
    IWDG_ReloadCounter                       0x08003845   Thumb Code    10  stm32f10x_iwdg.o(i.IWDG_ReloadCounter)
    IWDG_SetPrescaler                        0x08003855   Thumb Code     6  stm32f10x_iwdg.o(i.IWDG_SetPrescaler)
    IWDG_SetReload                           0x08003861   Thumb Code     6  stm32f10x_iwdg.o(i.IWDG_SetReload)
    IWDG_WriteAccessCmd                      0x0800386d   Thumb Code     6  stm32f10x_iwdg.o(i.IWDG_WriteAccessCmd)
    LEDInit                                  0x080038d5   Thumb Code    56  led.o(i.LEDInit)
    Loop_check                               0x08003919   Thumb Code   102  scheduler.o(i.Loop_check)
    MemManage_Handler                        0x08003985   Thumb Code     4  stm32f10x_it.o(i.MemManage_Handler)
    MotorControl                             0x08003989   Thumb Code   594  control.o(i.MotorControl)
    MpuGetData                               0x08003bfd   Thumb Code   220  mpu6050.o(i.MpuGetData)
    MpuGetOffset                             0x08003cf1   Thumb Code   284  mpu6050.o(i.MpuGetOffset)
    MpuInit                                  0x08003e19   Thumb Code   158  mpu6050.o(i.MpuInit)
    NMI_Handler                              0x08003ec1   Thumb Code     2  stm32f10x_it.o(i.NMI_Handler)
    NRF24L01_Check                           0x08003ec5   Thumb Code    68  nrf24l01.o(i.NRF24L01_Check)
    NRF24L01_Configuration                   0x08003f11   Thumb Code   132  nrf24l01.o(i.NRF24L01_Configuration)
    NRF24L01_Read_Buf                        0x08003f9d   Thumb Code    62  nrf24l01.o(i.NRF24L01_Read_Buf)
    NRF24L01_Read_Reg                        0x08003fe1   Thumb Code    40  nrf24l01.o(i.NRF24L01_Read_Reg)
    NRF24L01_Write_Buf                       0x0800400d   Thumb Code    62  nrf24l01.o(i.NRF24L01_Write_Buf)
    NRF24L01_Write_Reg                       0x08004051   Thumb Code    42  nrf24l01.o(i.NRF24L01_Write_Reg)
    NRF24L01_init                            0x08004081   Thumb Code    82  nrf24l01.o(i.NRF24L01_init)
    NRF_Connect                              0x080040e5   Thumb Code    78  nrf24l01.o(i.NRF_Connect)
    NVIC_Init                                0x08004145   Thumb Code   100  misc.o(i.NVIC_Init)
    NVIC_PriorityGroupConfig                 0x080041b5   Thumb Code    10  misc.o(i.NVIC_PriorityGroupConfig)
    PendSV_Handler                           0x080041c9   Thumb Code     2  stm32f10x_it.o(i.PendSV_Handler)
    PilotLED                                 0x080041cd   Thumb Code   294  led.o(i.PilotLED)
    Q_rsqrt                                  0x08004305   Thumb Code    74  mymath.o(i.Q_rsqrt)
    RCC_APB1PeriphClockCmd                   0x08004355   Thumb Code    26  stm32f10x_rcc.o(i.RCC_APB1PeriphClockCmd)
    RCC_APB2PeriphClockCmd                   0x08004375   Thumb Code    26  stm32f10x_rcc.o(i.RCC_APB2PeriphClockCmd)
    RCC_GetClocksFreq                        0x08004395   Thumb Code   192  stm32f10x_rcc.o(i.RCC_GetClocksFreq)
    RC_Analy                                 0x08004469   Thumb Code   258  remote.o(i.RC_Analy)
    Rc_Connect                               0x0800459d   Thumb Code    14  remote.o(i.Rc_Connect)
    SPI_Cmd                                  0x080045ab   Thumb Code    24  stm32f10x_spi.o(i.SPI_Cmd)
    SPI_Config                               0x080045c5   Thumb Code   140  spi.o(i.SPI_Config)
    SPI_I2S_GetFlagStatus                    0x08004659   Thumb Code    18  stm32f10x_spi.o(i.SPI_I2S_GetFlagStatus)
    SPI_I2S_ReceiveData                      0x0800466b   Thumb Code     6  stm32f10x_spi.o(i.SPI_I2S_ReceiveData)
    SPI_I2S_SendData                         0x08004671   Thumb Code     4  stm32f10x_spi.o(i.SPI_I2S_SendData)
    SPI_Init                                 0x08004675   Thumb Code    60  stm32f10x_spi.o(i.SPI_Init)
    SPI_RW                                   0x080046b1   Thumb Code    50  spi.o(i.SPI_RW)
    SVC_Handler                              0x080046e9   Thumb Code     2  stm32f10x_it.o(i.SVC_Handler)
    SysTick_Handler                          0x080047d5   Thumb Code     8  stm32f10x_it.o(i.SysTick_Handler)
    SysTick_IRQ                              0x080047dd   Thumb Code    60  delay.o(i.SysTick_IRQ)
    SystemInit                               0x08004825   Thumb Code    78  system_stm32f10x.o(i.SystemInit)
    TIM2_PWM_Config                          0x08004885   Thumb Code   216  tim.o(i.TIM2_PWM_Config)
    TIM3_PWM_Config                          0x08004965   Thumb Code   222  tim.o(i.TIM3_PWM_Config)
    TIM_ARRPreloadConfig                     0x08004a55   Thumb Code    24  stm32f10x_tim.o(i.TIM_ARRPreloadConfig)
    TIM_Cmd                                  0x08004a6d   Thumb Code    24  stm32f10x_tim.o(i.TIM_Cmd)
    TIM_ITConfig                             0x08004a85   Thumb Code    18  stm32f10x_tim.o(i.TIM_ITConfig)
    TIM_OC1Init                              0x08004a99   Thumb Code   132  stm32f10x_tim.o(i.TIM_OC1Init)
    TIM_OC1PreloadConfig                     0x08004b31   Thumb Code    18  stm32f10x_tim.o(i.TIM_OC1PreloadConfig)
    TIM_OC2Init                              0x08004b45   Thumb Code   154  stm32f10x_tim.o(i.TIM_OC2Init)
    TIM_OC2PreloadConfig                     0x08004be9   Thumb Code    26  stm32f10x_tim.o(i.TIM_OC2PreloadConfig)
    TIM_OC3Init                              0x08004c05   Thumb Code   150  stm32f10x_tim.o(i.TIM_OC3Init)
    TIM_OC3PreloadConfig                     0x08004ca5   Thumb Code    18  stm32f10x_tim.o(i.TIM_OC3PreloadConfig)
    TIM_OC4Init                              0x08004cb9   Thumb Code   114  stm32f10x_tim.o(i.TIM_OC4Init)
    TIM_OC4PreloadConfig                     0x08004d35   Thumb Code    26  stm32f10x_tim.o(i.TIM_OC4PreloadConfig)
    TIM_TimeBaseInit                         0x08004d51   Thumb Code   122  stm32f10x_tim.o(i.TIM_TimeBaseInit)
    USART1_IRQHandler                        0x08004df5   Thumb Code   112  uart1.o(i.USART1_IRQHandler)
    USART2_IRQHandler                        0x08004e75   Thumb Code   114  usart2.o(i.USART2_IRQHandler)
    USART3_Config                            0x08004ef9   Thumb Code   196  usart3.o(i.USART3_Config)
    USART3_IRQHandler                        0x08004fc5   Thumb Code   102  ano_dt.o(i.USART3_IRQHandler)
    USART3_SendByte                          0x0800503d   Thumb Code    44  usart3.o(i.USART3_SendByte)
    USART_ClockInit                          0x0800506d   Thumb Code    34  stm32f10x_usart.o(i.USART_ClockInit)
    USART_Cmd                                0x0800508f   Thumb Code    24  stm32f10x_usart.o(i.USART_Cmd)
    USART_GetFlagStatus                      0x080050a7   Thumb Code    26  stm32f10x_usart.o(i.USART_GetFlagStatus)
    USART_ITConfig                           0x080050c1   Thumb Code    74  stm32f10x_usart.o(i.USART_ITConfig)
    USART_Init                               0x0800510d   Thumb Code   210  stm32f10x_usart.o(i.USART_Init)
    USART_ReceiveData                        0x080051e5   Thumb Code    10  stm32f10x_usart.o(i.USART_ReceiveData)
    USART_SendData                           0x080051ef   Thumb Code     8  stm32f10x_usart.o(i.USART_SendData)
    UsageFault_Handler                       0x080051f7   Thumb Code     4  stm32f10x_it.o(i.UsageFault_Handler)
    WIFI_UFO_Connect                         0x080051fd   Thumb Code    98  wifi_ufo.o(i.WIFI_UFO_Connect)
    WIFI_UFO_Data_Receive_Anl                0x08005279   Thumb Code   350  wifi_ufo.o(i.WIFI_UFO_Data_Receive_Anl)
    __ARM_fpclassify                         0x080053f1   Thumb Code    40  fpclassify.o(i.__ARM_fpclassify)
    __ARM_fpclassifyf                        0x08005419   Thumb Code    38  fpclassifyf.o(i.__ARM_fpclassifyf)
    __kernel_poly                            0x0800543f   Thumb Code   170  poly.o(i.__kernel_poly)
    __mathlib_dbl_infnan                     0x080054e9   Thumb Code     6  dunder.o(i.__mathlib_dbl_infnan)
    __mathlib_dbl_invalid                    0x080054ef   Thumb Code    12  dunder.o(i.__mathlib_dbl_invalid)
    __mathlib_dbl_underflow                  0x080054fd   Thumb Code    10  dunder.o(i.__mathlib_dbl_underflow)
    __mathlib_flt_infnan2                    0x0800550d   Thumb Code     4  funder.o(i.__mathlib_flt_infnan2)
    __mathlib_flt_underflow                  0x08005511   Thumb Code    10  funder.o(i.__mathlib_flt_underflow)
    __scatterload_copy                       0x0800551b   Thumb Code    14  handlers.o(i.__scatterload_copy)
    __scatterload_null                       0x08005529   Thumb Code     2  handlers.o(i.__scatterload_null)
    __scatterload_zeroinit                   0x0800552b   Thumb Code    14  handlers.o(i.__scatterload_zeroinit)
    __set_errno                              0x08005539   Thumb Code     6  errno.o(i.__set_errno)
    asin                                     0x08005545   Thumb Code   572  asin.o(i.asin)
    atan2f                                   0x080057b5   Thumb Code   528  atan2f.o(i.atan2f)
    cycleCounterInit                         0x08005a11   Thumb Code    26  delay.o(i.cycleCounterInit)
    delay_ms                                 0x08005a35   Thumb Code    44  delay.o(i.delay_ms)
    kalman_1                                 0x08005a65   Thumb Code    88  kalman.o(i.kalman_1)
    main                                     0x08005abd   Thumb Code   118  main.o(i.main)
    main_loop                                0x08005b41   Thumb Code   160  scheduler.o(i.main_loop)
    pidRest                                  0x08005be5   Thumb Code    44  pid.o(i.pidRest)
    pidUpdate                                0x08005c11   Thumb Code   106  pid.o(i.pidUpdate)
    pid_param_Init                           0x08005c7d   Thumb Code   144  init.o(i.pid_param_Init)
    remote_unlock                            0x08005d51   Thumb Code   264  remote.o(i.remote_unlock)
    sqrt                                     0x08005e71   Thumb Code    76  sqrt.o(i.sqrt)
    TX_ADDRESS                               0x08005ebc   Data           5  nrf24l01.o(.constdata)
    RX_ADDRESS                               0x08005ec1   Data           5  nrf24l01.o(.constdata)
    M_PI                                     0x08005ec8   Data           4  mymath.o(.constdata)
    RtA                                      0x08005ecc   Data           4  mymath.o(.constdata)
    AtR                                      0x08005ed0   Data           4  mymath.o(.constdata)
    Gyro_G                                   0x08005ed4   Data           4  mymath.o(.constdata)
    Gyro_Gr                                  0x08005ed8   Data           4  mymath.o(.constdata)
    PI_2                                     0x08005edc   Data           4  mymath.o(.constdata)
    Region$$Table$$Base                      0x08005f30   Number         0  anon$$obj.o(Region$$Table)
    Region$$Table$$Limit                     0x08005f50   Number         0  anon$$obj.o(Region$$Table)
    SystemCoreClock                          0x20000000   Data           4  system_stm32f10x.o(.data)
    AHBPrescTable                            0x20000004   Data          16  system_stm32f10x.o(.data)
    SysTick_count22                          0x20000018   Data           4  delay.o(.data)
    sys_init_ok                              0x2000001c   Data           1  delay.o(.data)
    time_sum                                 0x20000020   Data           4  scheduler.o(.data)
    Flow_SSI_CNT                             0x20000024   Data           1  scheduler.o(.data)
    Locat_SSI_CNT                            0x20000025   Data           1  scheduler.o(.data)
    Locat_SSI                                0x20000026   Data           1  scheduler.o(.data)
    Flow_SSI                                 0x20000027   Data           1  scheduler.o(.data)
    Locat_Mode                               0x20000028   Data           1  scheduler.o(.data)
    SysTick_count                            0x2000002c   Data           4  init.o(.data)
    spl_flag                                 0x20000030   Data           1  init.o(.data)
    AK8975                                   0x20000032   Data           6  init.o(.data)
    ST_CpuID                                 0x20000038   Data           4  init.o(.data)
    Command                                  0x2000003c   Data           3  init.o(.data)
    ADC_ConvertedValue                       0x20000054   Data           4  adc.o(.data)
    voltage                                  0x20000058   Data           2  adc.o(.data)
    TxCounter                                0x2000005e   Data           1  uart1.o(.data)
    count                                    0x2000005f   Data           1  uart1.o(.data)
    com_data                                 0x20000060   Data           1  uart1.o(.data)
    TxCounter2                               0x20000061   Data           1  usart2.o(.data)
    count2                                   0x20000062   Data           1  usart2.o(.data)
    LED                                      0x20000064   Data           4  led.o(.data)
    LED_warn                                 0x20000068   Data           1  led.o(.data)
    MPU_Err                                  0x20000070   Data           1  nrf24l01.o(.data)
    NRF_Err                                  0x20000071   Data           1  nrf24l01.o(.data)
    SPL_Err                                  0x20000072   Data           1  nrf24l01.o(.data)
    NRF_SSI                                  0x20000073   Data           1  nrf24l01.o(.data)
    NRF_SSI_CNT                              0x20000074   Data           1  nrf24l01.o(.data)
    Nrf_Erro                                 0x20000076   Data           2  nrf24l01.o(.data)
    _CH                                      0x20000078   Data           1  nrf24l01.o(.data)
    flag                                     0x200000c8   Data           6  ano_dt.o(.data)
    TxCounter3                               0x200000d6   Data           1  ano_dt.o(.data)
    count3                                   0x200000d7   Data           1  ano_dt.o(.data)
    test_flag                                0x200000dc   Data           2  remote.o(.data)
    set_flag                                 0x200000de   Data           2  remote.o(.data)
    pPidObject                               0x200000ec   Data          48  control.o(.data)
    motor                                    0x2000011c   Data           8  control.o(.data)
    WIFI_UFO_Err                             0x2000012e   Data           2  wifi_ufo.o(.data)
    WIFI_SSI                                 0x20000130   Data           1  wifi_ufo.o(.data)
    WIFI_SSI_CNT                             0x20000131   Data           1  wifi_ufo.o(.data)
    ult_ok                                   0x20000140   Data           1  ano_data_transfer.o(.data)
    Locat_Err                                0x20000141   Data           1  ano_data_transfer.o(.data)
    Flow_Err                                 0x20000142   Data           1  ano_data_transfer.o(.data)
    cnt                                      0x20000143   Data           1  ano_data_transfer.o(.data)
    yaw_lock                                 0x20000144   Data           1  ano_data_transfer.o(.data)
    Send_Check                               0x20000145   Data           1  ano_data_transfer.o(.data)
    loop                                     0x20000168   Data          18  scheduler.o(.bss)
    time                                     0x2000017c   Data          40  scheduler.o(.bss)
    MPU6050                                  0x200001a4   Data          12  init.o(.bss)
    Angle                                    0x200001b0   Data          12  init.o(.bss)
    Remote                                   0x200001bc   Data          22  init.o(.bss)
    ALL_flag                                 0x200001d4   Data          12  init.o(.bss)
    FlightData                               0x200001e0   Data          16  init.o(.bss)
    pidRateX                                 0x200001f0   Data         128  init.o(.bss)
    pidRateY                                 0x20000270   Data         128  init.o(.bss)
    pidRateZ                                 0x200002f0   Data         128  init.o(.bss)
    pidPitch                                 0x20000370   Data         128  init.o(.bss)
    pidRoll                                  0x200003f0   Data         128  init.o(.bss)
    pidYaw                                   0x20000470   Data         128  init.o(.bss)
    pidHeightRate                            0x200004f0   Data         128  init.o(.bss)
    pidHeightHigh                            0x20000570   Data         128  init.o(.bss)
    Flow_PosPid_x                            0x200005f0   Data         128  init.o(.bss)
    Flow_PosPid_y                            0x20000670   Data         128  init.o(.bss)
    Flow_SpeedPid_x                          0x200006f0   Data         128  init.o(.bss)
    Flow_SpeedPid_y                          0x20000770   Data         128  init.o(.bss)
    IMU                                      0x200007f0   Data          40  init.o(.bss)
    TxBuffer                                 0x20000818   Data         256  uart1.o(.bss)
    TxBuffer2                                0x20000918   Data         256  usart2.o(.bss)
    NRF24L01_2_RXDATA                        0x20000a18   Data          32  nrf24l01.o(.bss)
    NRF24L01_2_TXDATA                        0x20000a38   Data          32  nrf24l01.o(.bss)
    MpuOffset                                0x20000a58   Data          12  mpu6050.o(.bss)
    TxBuffer3                                0x20000ab8   Data         256  ano_dt.o(.bss)
    f                                        0x20000bea   Data          14  ano_data_transfer.o(.bss)
    data_to_send                             0x20000bf8   Data          50  ano_data_transfer.o(.bss)
    __initial_sp                             0x20001038   Data           0  startup_stm32f10x_md.o(STACK)



==============================================================================

Memory Map of the image

  Image Entry point : 0x080000ed

  Load Region LR_IROM1 (Base: 0x08000000, Size: 0x000060b8, Max: 0x00010000, ABSOLUTE, COMPRESSED[0x00005fc8])

    Execution Region ER_IROM1 (Exec base: 0x08000000, Load base: 0x08000000, Size: 0x00005f50, Max: 0x00010000, ABSOLUTE)

    Exec Addr    Load Addr    Size         Type   Attr      Idx    E Section Name        Object

    0x08000000   0x08000000   0x000000ec   Data   RO          105    RESET               startup_stm32f10x_md.o
    0x080000ec   0x080000ec   0x00000000   Code   RO         4652  * .ARM.Collect$$$$00000000  mc_w.l(entry.o)
    0x080000ec   0x080000ec   0x00000004   Code   RO         4739    .ARM.Collect$$$$00000001  mc_w.l(entry2.o)
    0x080000f0   0x080000f0   0x00000004   Code   RO         4742    .ARM.Collect$$$$00000004  mc_w.l(entry5.o)
    0x080000f4   0x080000f4   0x00000000   Code   RO         4744    .ARM.Collect$$$$00000008  mc_w.l(entry7b.o)
    0x080000f4   0x080000f4   0x00000000   Code   RO         4746    .ARM.Collect$$$$0000000A  mc_w.l(entry8b.o)
    0x080000f4   0x080000f4   0x00000008   Code   RO         4747    .ARM.Collect$$$$0000000B  mc_w.l(entry9a.o)
    0x080000fc   0x080000fc   0x00000000   Code   RO         4749    .ARM.Collect$$$$0000000D  mc_w.l(entry10a.o)
    0x080000fc   0x080000fc   0x00000000   Code   RO         4751    .ARM.Collect$$$$0000000F  mc_w.l(entry11a.o)
    0x080000fc   0x080000fc   0x00000004   Code   RO         4740    .ARM.Collect$$$$00002712  mc_w.l(entry2.o)
    0x08000100   0x08000100   0x00000024   Code   RO          106    .text               startup_stm32f10x_md.o
    0x08000124   0x08000124   0x00000024   Code   RO         4655    .text               mc_w.l(memcpya.o)
    0x08000148   0x08000148   0x00000024   Code   RO         4657    .text               mc_w.l(memseta.o)
    0x0800016c   0x0800016c   0x000000b0   Code   RO         4661    .text               mf_w.l(fadd.o)
    0x0800021c   0x0800021c   0x00000064   Code   RO         4663    .text               mf_w.l(fmul.o)
    0x08000280   0x08000280   0x0000007c   Code   RO         4665    .text               mf_w.l(fdiv.o)
    0x080002fc   0x080002fc   0x0000014e   Code   RO         4667    .text               mf_w.l(dadd.o)
    0x0800044a   0x0800044a   0x000000e4   Code   RO         4669    .text               mf_w.l(dmul.o)
    0x0800052e   0x0800052e   0x00000012   Code   RO         4671    .text               mf_w.l(fflti.o)
    0x08000540   0x08000540   0x0000000a   Code   RO         4673    .text               mf_w.l(ffltui.o)
    0x0800054a   0x0800054a   0x00000032   Code   RO         4675    .text               mf_w.l(ffixi.o)
    0x0800057c   0x0800057c   0x00000028   Code   RO         4677    .text               mf_w.l(ffixui.o)
    0x080005a4   0x080005a4   0x00000032   Code   RO         4679    .text               mf_w.l(dfixui.o)
    0x080005d6   0x080005d6   0x00000026   Code   RO         4681    .text               mf_w.l(f2d.o)
    0x080005fc   0x080005fc   0x00000038   Code   RO         4683    .text               mf_w.l(d2f.o)
    0x08000634   0x08000634   0x00000014   Code   RO         4685    .text               mf_w.l(cfcmple.o)
    0x08000648   0x08000648   0x00000014   Code   RO         4687    .text               mf_w.l(cfrcmple.o)
    0x0800065c   0x0800065c   0x0000001e   Code   RO         4753    .text               mc_w.l(llshl.o)
    0x0800067a   0x0800067a   0x00000020   Code   RO         4755    .text               mc_w.l(llushr.o)
    0x0800069a   0x0800069a   0x00000024   Code   RO         4757    .text               mc_w.l(llsshr.o)
    0x080006be   0x080006be   0x00000000   Code   RO         4766    .text               mc_w.l(iusefp.o)
    0x080006be   0x080006be   0x0000006e   Code   RO         4767    .text               mf_w.l(fepilogue.o)
    0x0800072c   0x0800072c   0x00000018   Code   RO         4769    .text               mf_w.l(fscalb.o)
    0x08000744   0x08000744   0x000000ba   Code   RO         4771    .text               mf_w.l(depilogue.o)
    0x080007fe   0x080007fe   0x000000de   Code   RO         4773    .text               mf_w.l(ddiv.o)
    0x080008dc   0x080008dc   0x0000002e   Code   RO         4775    .text               mf_w.l(dscalb.o)
    0x0800090a   0x0800090a   0x00000002   PAD
    0x0800090c   0x0800090c   0x00000024   Code   RO         4777    .text               mc_w.l(init.o)
    0x08000930   0x08000930   0x000000a2   Code   RO         4781    .text               mf_w.l(dsqrt.o)
    0x080009d2   0x080009d2   0x00000056   Code   RO         4793    .text               mc_w.l(__dczerorl2.o)
    0x08000a28   0x08000a28   0x00000048   Code   RO          451    i.ALL_Init          init.o
    0x08000a70   0x08000a70   0x000005ac   Code   RO         4237    i.ANO_DT_Data_Exchange  ano_data_transfer.o
    0x0800101c   0x0800101c   0x000001f4   Code   RO         4059    i.ANO_DT_Data_Receive_Anl  ano_dt.o
    0x08001210   0x08001210   0x000000e8   Code   RO         4060    i.ANO_DT_Data_Receive_Prepare  ano_dt.o
    0x080012f8   0x080012f8   0x00000084   Code   RO         4061    i.ANO_DT_Send_Check  ano_dt.o
    0x0800137c   0x0800137c   0x00000010   Code   RO         4238    i.ANO_DT_Send_Data  ano_data_transfer.o
    0x0800138c   0x0800138c   0x00000184   Code   RO         4241    i.ANO_DT_Send_PID   ano_data_transfer.o
    0x08001510   0x08001510   0x000000f4   Code   RO         4242    i.ANO_DT_Send_Power  ano_data_transfer.o
    0x08001604   0x08001604   0x00000164   Code   RO         4243    i.ANO_DT_Send_RCData  ano_data_transfer.o
    0x08001768   0x08001768   0x0000019c   Code   RO         4244    i.ANO_DT_Send_Senser  ano_data_transfer.o
    0x08001904   0x08001904   0x000000a0   Code   RO         4245    i.ANO_DT_Send_Senser2  ano_data_transfer.o
    0x080019a4   0x080019a4   0x00000148   Code   RO         4247    i.ANO_DT_Send_Status  ano_data_transfer.o
    0x08001aec   0x08001aec   0x000000b4   Code   RO         4249    i.ANO_DT_Send_speed  ano_data_transfer.o
    0x08001ba0   0x08001ba0   0x00000060   Code   RO         3812    i.ANO_NRF_Check_Event  nrf24l01.o
    0x08001c00   0x08001c00   0x000000fc   Code   RO         3813    i.ANO_NRF_Init      nrf24l01.o
    0x08001cfc   0x08001cfc   0x00000028   Code   RO         3814    i.ANO_NRF_TxPacket_AP  nrf24l01.o
    0x08001d24   0x08001d24   0x000000d4   Code   RO         3696    i.ANO_Uart1_Init    uart1.o
    0x08001df8   0x08001df8   0x000003e0   Code   RO         4063    i.ANTO_Send         ano_dt.o
    0x080021d8   0x080021d8   0x0000029c   Code   RO         4064    i.ANTO_polling      ano_dt.o
    0x08002474   0x08002474   0x00000004   Code   RO          110    i.BusFault_Handler  stm32f10x_it.o
    0x08002478   0x08002478   0x0000001e   Code   RO         4599    i.CascadePID        pid.o
    0x08002496   0x08002496   0x00000002   Code   RO          111    i.DebugMon_Handler  stm32f10x_it.o
    0x08002498   0x08002498   0x000000c4   Code   RO          383    i.Duty_1000ms       scheduler.o
    0x0800255c   0x0800255c   0x00000024   Code   RO          384    i.Duty_10ms         scheduler.o
    0x08002580   0x08002580   0x00000024   Code   RO          385    i.Duty_20ms         scheduler.o
    0x080025a4   0x080025a4   0x00000030   Code   RO          386    i.Duty_2ms          scheduler.o
    0x080025d4   0x080025d4   0x0000002c   Code   RO          387    i.Duty_4ms          scheduler.o
    0x08002600   0x08002600   0x00000028   Code   RO          388    i.Duty_50ms         scheduler.o
    0x08002628   0x08002628   0x00000034   Code   RO          389    i.Duty_6ms          scheduler.o
    0x0800265c   0x0800265c   0x000000a8   Code   RO         4250    i.Flag_Check        ano_data_transfer.o
    0x08002704   0x08002704   0x00000140   Code   RO         4169    i.FlightPidControl  control.o
    0x08002844   0x08002844   0x00000116   Code   RO         1655    i.GPIO_Init         stm32f10x_gpio.o
    0x0800295a   0x0800295a   0x00000002   PAD
    0x0800295c   0x0800295c   0x00000090   Code   RO         1657    i.GPIO_PinRemapConfig  stm32f10x_gpio.o
    0x080029ec   0x080029ec   0x00000004   Code   RO         1663    i.GPIO_SetBits      stm32f10x_gpio.o
    0x080029f0   0x080029f0   0x0000076c   Code   RO         4474    i.GetAngle          imu.o
    0x0800315c   0x0800315c   0x00000014   Code   RO          452    i.GetLockCode       init.o
    0x08003170   0x08003170   0x00000044   Code   RO          328    i.GetSysTime_us     delay.o
    0x080031b4   0x080031b4   0x00000004   Code   RO          112    i.HardFault_Handler  stm32f10x_it.o
    0x080031b8   0x080031b8   0x000000cc   Code   RO         3480    i.I2c_Ack           iic_software.o
    0x08003284   0x08003284   0x000000cc   Code   RO         3481    i.I2c_NoAck         iic_software.o
    0x08003350   0x08003350   0x000000c0   Code   RO         3482    i.I2c_ReadByte      iic_software.o
    0x08003410   0x08003410   0x000000c0   Code   RO         3483    i.I2c_SendByte      iic_software.o
    0x080034d0   0x080034d0   0x00000094   Code   RO         3485    i.I2c_Start         iic_software.o
    0x08003564   0x08003564   0x0000009c   Code   RO         3486    i.I2c_Stop          iic_software.o
    0x08003600   0x08003600   0x000000b4   Code   RO         3487    i.I2c_WaitAck       iic_software.o
    0x080036b4   0x080036b4   0x0000002c   Code   RO         3488    i.IIC_Init          iic_software.o
    0x080036e0   0x080036e0   0x00000064   Code   RO         3490    i.IIC_Read_One_Byte  iic_software.o
    0x08003744   0x08003744   0x00000044   Code   RO         3493    i.IIC_Write_One_Byte  iic_software.o
    0x08003788   0x08003788   0x00000080   Code   RO         3494    i.IIC_read_Bytes    iic_software.o
    0x08003808   0x08003808   0x00000010   Code   RO         1967    i.IWDG_Enable       stm32f10x_iwdg.o
    0x08003818   0x08003818   0x00000008   Code   RO          192    i.IWDG_Feed         main.o
    0x08003820   0x08003820   0x00000024   Code   RO          193    i.IWDG_Init         main.o
    0x08003844   0x08003844   0x00000010   Code   RO         1969    i.IWDG_ReloadCounter  stm32f10x_iwdg.o
    0x08003854   0x08003854   0x0000000c   Code   RO         1970    i.IWDG_SetPrescaler  stm32f10x_iwdg.o
    0x08003860   0x08003860   0x0000000c   Code   RO         1971    i.IWDG_SetReload    stm32f10x_iwdg.o
    0x0800386c   0x0800386c   0x0000000c   Code   RO         1972    i.IWDG_WriteAccessCmd  stm32f10x_iwdg.o
    0x08003878   0x08003878   0x0000005c   Code   RO         4194    i.Key_Function      wifi_ufo.o
    0x080038d4   0x080038d4   0x00000044   Code   RO         3788    i.LEDInit           led.o
    0x08003918   0x08003918   0x0000006c   Code   RO          390    i.Loop_check        scheduler.o
    0x08003984   0x08003984   0x00000004   Code   RO          113    i.MemManage_Handler  stm32f10x_it.o
    0x08003988   0x08003988   0x00000274   Code   RO         4170    i.MotorControl      control.o
    0x08003bfc   0x08003bfc   0x000000f4   Code   RO         4001    i.MpuGetData        mpu6050.o
    0x08003cf0   0x08003cf0   0x00000128   Code   RO         4002    i.MpuGetOffset      mpu6050.o
    0x08003e18   0x08003e18   0x000000a8   Code   RO         4003    i.MpuInit           mpu6050.o
    0x08003ec0   0x08003ec0   0x00000002   Code   RO          114    i.NMI_Handler       stm32f10x_it.o
    0x08003ec2   0x08003ec2   0x00000002   PAD
    0x08003ec4   0x08003ec4   0x0000004c   Code   RO         3815    i.NRF24L01_Check    nrf24l01.o
    0x08003f10   0x08003f10   0x0000008c   Code   RO         3816    i.NRF24L01_Configuration  nrf24l01.o
    0x08003f9c   0x08003f9c   0x00000044   Code   RO         3817    i.NRF24L01_Read_Buf  nrf24l01.o
    0x08003fe0   0x08003fe0   0x0000002c   Code   RO         3818    i.NRF24L01_Read_Reg  nrf24l01.o
    0x0800400c   0x0800400c   0x00000044   Code   RO         3821    i.NRF24L01_Write_Buf  nrf24l01.o
    0x08004050   0x08004050   0x00000030   Code   RO         3822    i.NRF24L01_Write_Reg  nrf24l01.o
    0x08004080   0x08004080   0x00000064   Code   RO         3823    i.NRF24L01_init     nrf24l01.o
    0x080040e4   0x080040e4   0x00000060   Code   RO         3824    i.NRF_Connect       nrf24l01.o
    0x08004144   0x08004144   0x00000070   Code   RO          486    i.NVIC_Init         misc.o
    0x080041b4   0x080041b4   0x00000014   Code   RO          487    i.NVIC_PriorityGroupConfig  misc.o
    0x080041c8   0x080041c8   0x00000002   Code   RO          115    i.PendSV_Handler    stm32f10x_it.o
    0x080041ca   0x080041ca   0x00000002   PAD
    0x080041cc   0x080041cc   0x00000138   Code   RO         3789    i.PilotLED          led.o
    0x08004304   0x08004304   0x00000050   Code   RO         4502    i.Q_rsqrt           mymath.o
    0x08004354   0x08004354   0x00000020   Code   RO         2077    i.RCC_APB1PeriphClockCmd  stm32f10x_rcc.o
    0x08004374   0x08004374   0x00000020   Code   RO         2079    i.RCC_APB2PeriphClockCmd  stm32f10x_rcc.o
    0x08004394   0x08004394   0x000000d4   Code   RO         2087    i.RCC_GetClocksFreq  stm32f10x_rcc.o
    0x08004468   0x08004468   0x00000134   Code   RO         4127    i.RC_Analy          remote.o
    0x0800459c   0x0800459c   0x0000000e   Code   RO         4128    i.Rc_Connect        remote.o
    0x080045aa   0x080045aa   0x00000018   Code   RO         2559    i.SPI_Cmd           stm32f10x_spi.o
    0x080045c2   0x080045c2   0x00000002   PAD
    0x080045c4   0x080045c4   0x00000094   Code   RO         3639    i.SPI_Config        spi.o
    0x08004658   0x08004658   0x00000012   Code   RO         2567    i.SPI_I2S_GetFlagStatus  stm32f10x_spi.o
    0x0800466a   0x0800466a   0x00000006   Code   RO         2570    i.SPI_I2S_ReceiveData  stm32f10x_spi.o
    0x08004670   0x08004670   0x00000004   Code   RO         2571    i.SPI_I2S_SendData  stm32f10x_spi.o
    0x08004674   0x08004674   0x0000003c   Code   RO         2572    i.SPI_Init          stm32f10x_spi.o
    0x080046b0   0x080046b0   0x00000038   Code   RO         3640    i.SPI_RW            spi.o
    0x080046e8   0x080046e8   0x00000002   Code   RO          116    i.SVC_Handler       stm32f10x_it.o
    0x080046ea   0x080046ea   0x00000008   Code   RO           17    i.SetSysClock       system_stm32f10x.o
    0x080046f2   0x080046f2   0x00000002   PAD
    0x080046f4   0x080046f4   0x000000e0   Code   RO           18    i.SetSysClockTo72   system_stm32f10x.o
    0x080047d4   0x080047d4   0x00000008   Code   RO          117    i.SysTick_Handler   stm32f10x_it.o
    0x080047dc   0x080047dc   0x00000048   Code   RO          329    i.SysTick_IRQ       delay.o
    0x08004824   0x08004824   0x00000060   Code   RO           20    i.SystemInit        system_stm32f10x.o
    0x08004884   0x08004884   0x000000e0   Code   RO         3587    i.TIM2_PWM_Config   tim.o
    0x08004964   0x08004964   0x000000f0   Code   RO         3588    i.TIM3_PWM_Config   tim.o
    0x08004a54   0x08004a54   0x00000018   Code   RO         2702    i.TIM_ARRPreloadConfig  stm32f10x_tim.o
    0x08004a6c   0x08004a6c   0x00000018   Code   RO         2714    i.TIM_Cmd           stm32f10x_tim.o
    0x08004a84   0x08004a84   0x00000012   Code   RO         2739    i.TIM_ITConfig      stm32f10x_tim.o
    0x08004a96   0x08004a96   0x00000002   PAD
    0x08004a98   0x08004a98   0x00000098   Code   RO         2743    i.TIM_OC1Init       stm32f10x_tim.o
    0x08004b30   0x08004b30   0x00000012   Code   RO         2746    i.TIM_OC1PreloadConfig  stm32f10x_tim.o
    0x08004b42   0x08004b42   0x00000002   PAD
    0x08004b44   0x08004b44   0x000000a4   Code   RO         2748    i.TIM_OC2Init       stm32f10x_tim.o
    0x08004be8   0x08004be8   0x0000001a   Code   RO         2751    i.TIM_OC2PreloadConfig  stm32f10x_tim.o
    0x08004c02   0x08004c02   0x00000002   PAD
    0x08004c04   0x08004c04   0x000000a0   Code   RO         2753    i.TIM_OC3Init       stm32f10x_tim.o
    0x08004ca4   0x08004ca4   0x00000012   Code   RO         2756    i.TIM_OC3PreloadConfig  stm32f10x_tim.o
    0x08004cb6   0x08004cb6   0x00000002   PAD
    0x08004cb8   0x08004cb8   0x0000007c   Code   RO         2758    i.TIM_OC4Init       stm32f10x_tim.o
    0x08004d34   0x08004d34   0x0000001a   Code   RO         2760    i.TIM_OC4PreloadConfig  stm32f10x_tim.o
    0x08004d4e   0x08004d4e   0x00000002   PAD
    0x08004d50   0x08004d50   0x000000a4   Code   RO         2785    i.TIM_TimeBaseInit  stm32f10x_tim.o
    0x08004df4   0x08004df4   0x00000080   Code   RO         3700    i.USART1_IRQHandler  uart1.o
    0x08004e74   0x08004e74   0x00000084   Code   RO         3749    i.USART2_IRQHandler  usart2.o
    0x08004ef8   0x08004ef8   0x000000cc   Code   RO         3661    i.USART3_Config     usart3.o
    0x08004fc4   0x08004fc4   0x00000078   Code   RO         4065    i.USART3_IRQHandler  ano_dt.o
    0x0800503c   0x0800503c   0x00000030   Code   RO         3663    i.USART3_SendByte   usart3.o
    0x0800506c   0x0800506c   0x00000022   Code   RO         3248    i.USART_ClockInit   stm32f10x_usart.o
    0x0800508e   0x0800508e   0x00000018   Code   RO         3250    i.USART_Cmd         stm32f10x_usart.o
    0x080050a6   0x080050a6   0x0000001a   Code   RO         3253    i.USART_GetFlagStatus  stm32f10x_usart.o
    0x080050c0   0x080050c0   0x0000004a   Code   RO         3256    i.USART_ITConfig    stm32f10x_usart.o
    0x0800510a   0x0800510a   0x00000002   PAD
    0x0800510c   0x0800510c   0x000000d8   Code   RO         3257    i.USART_Init        stm32f10x_usart.o
    0x080051e4   0x080051e4   0x0000000a   Code   RO         3264    i.USART_ReceiveData  stm32f10x_usart.o
    0x080051ee   0x080051ee   0x00000008   Code   RO         3267    i.USART_SendData    stm32f10x_usart.o
    0x080051f6   0x080051f6   0x00000004   Code   RO          118    i.UsageFault_Handler  stm32f10x_it.o
    0x080051fa   0x080051fa   0x00000002   PAD
    0x080051fc   0x080051fc   0x0000007c   Code   RO         4195    i.WIFI_UFO_Connect  wifi_ufo.o
    0x08005278   0x08005278   0x00000178   Code   RO         4196    i.WIFI_UFO_Data_Receive_Anl  wifi_ufo.o
    0x080053f0   0x080053f0   0x00000028   Code   RO         4703    i.__ARM_fpclassify  m_ws.l(fpclassify.o)
    0x08005418   0x08005418   0x00000026   Code   RO         4705    i.__ARM_fpclassifyf  m_ws.l(fpclassifyf.o)
    0x0800543e   0x0800543e   0x000000aa   Code   RO         4721    i.__kernel_poly     m_ws.l(poly.o)
    0x080054e8   0x080054e8   0x00000006   Code   RO         4690    i.__mathlib_dbl_infnan  m_ws.l(dunder.o)
    0x080054ee   0x080054ee   0x0000000c   Code   RO         4692    i.__mathlib_dbl_invalid  m_ws.l(dunder.o)
    0x080054fa   0x080054fa   0x00000002   PAD
    0x080054fc   0x080054fc   0x00000010   Code   RO         4695    i.__mathlib_dbl_underflow  m_ws.l(dunder.o)
    0x0800550c   0x0800550c   0x00000004   Code   RO         4709    i.__mathlib_flt_infnan2  m_ws.l(funder.o)
    0x08005510   0x08005510   0x0000000a   Code   RO         4713    i.__mathlib_flt_underflow  m_ws.l(funder.o)
    0x0800551a   0x0800551a   0x0000000e   Code   RO         4787    i.__scatterload_copy  mc_w.l(handlers.o)
    0x08005528   0x08005528   0x00000002   Code   RO         4788    i.__scatterload_null  mc_w.l(handlers.o)
    0x0800552a   0x0800552a   0x0000000e   Code   RO         4789    i.__scatterload_zeroinit  mc_w.l(handlers.o)
    0x08005538   0x08005538   0x0000000c   Code   RO         4761    i.__set_errno       mc_w.l(errno.o)
    0x08005544   0x08005544   0x00000270   Code   RO         4627    i.asin              m_ws.l(asin.o)
    0x080057b4   0x080057b4   0x0000025c   Code   RO         4645    i.atan2f            m_ws.l(atan2f.o)
    0x08005a10   0x08005a10   0x00000024   Code   RO          330    i.cycleCounterInit  delay.o
    0x08005a34   0x08005a34   0x00000030   Code   RO          331    i.delay_ms          delay.o
    0x08005a64   0x08005a64   0x00000058   Code   RO         4405    i.kalman_1          kalman.o
    0x08005abc   0x08005abc   0x00000084   Code   RO          194    i.main              main.o
    0x08005b40   0x08005b40   0x000000a4   Code   RO          391    i.main_loop         scheduler.o
    0x08005be4   0x08005be4   0x0000002c   Code   RO         4600    i.pidRest           pid.o
    0x08005c10   0x08005c10   0x0000006a   Code   RO         4601    i.pidUpdate         pid.o
    0x08005c7a   0x08005c7a   0x00000002   PAD
    0x08005c7c   0x08005c7c   0x000000d4   Code   RO          453    i.pid_param_Init    init.o
    0x08005d50   0x08005d50   0x00000120   Code   RO         4129    i.remote_unlock     remote.o
    0x08005e70   0x08005e70   0x0000004c   Code   RO         4724    i.sqrt              m_ws.l(sqrt.o)
    0x08005ebc   0x08005ebc   0x0000000a   Data   RO         3828    .constdata          nrf24l01.o
    0x08005ec6   0x08005ec6   0x00000002   PAD
    0x08005ec8   0x08005ec8   0x00000018   Data   RO         4515    .constdata          mymath.o
    0x08005ee0   0x08005ee0   0x00000050   Data   RO         4628    .constdata          m_ws.l(asin.o)
    0x08005f30   0x08005f30   0x00000020   Data   RO         4785    Region$$Table       anon$$obj.o


    Execution Region RW_IRAM1 (Exec base: 0x20000000, Load base: 0x08005f50, Size: 0x00001038, Max: 0x00005000, ABSOLUTE, COMPRESSED[0x00000078])

    Exec Addr    Load Addr    Size         Type   Attr      Idx    E Section Name        Object

    0x20000000   COMPRESSED   0x00000014   Data   RW           21    .data               system_stm32f10x.o
    0x20000014   COMPRESSED   0x0000000a   Data   RW          334    .data               delay.o
    0x2000001e   COMPRESSED   0x00000002   PAD
    0x20000020   COMPRESSED   0x00000009   Data   RW          393    .data               scheduler.o
    0x20000029   COMPRESSED   0x00000003   PAD
    0x2000002c   COMPRESSED   0x00000013   Data   RW          455    .data               init.o
    0x2000003f   COMPRESSED   0x00000014   Data   RW         2107    .data               stm32f10x_rcc.o
    0x20000053   COMPRESSED   0x00000001   PAD
    0x20000054   COMPRESSED   0x0000000a   Data   RW         3609    .data               adc.o
    0x2000005e   COMPRESSED   0x00000003   Data   RW         3703    .data               uart1.o
    0x20000061   COMPRESSED   0x00000002   Data   RW         3751    .data               usart2.o
    0x20000063   COMPRESSED   0x00000001   PAD
    0x20000064   COMPRESSED   0x0000000c   Data   RW         3790    .data               led.o
    0x20000070   COMPRESSED   0x0000000a   Data   RW         3829    .data               nrf24l01.o
    0x2000007a   COMPRESSED   0x00000002   PAD
    0x2000007c   COMPRESSED   0x0000004c   Data   RW         4006    .data               mpu6050.o
    0x200000c8   COMPRESSED   0x00000014   Data   RW         4067    .data               ano_dt.o
    0x200000dc   COMPRESSED   0x0000000d   Data   RW         4131    .data               remote.o
    0x200000e9   COMPRESSED   0x00000003   PAD
    0x200000ec   COMPRESSED   0x0000003a   Data   RW         4171    .data               control.o
    0x20000126   COMPRESSED   0x0000001a   Data   RW         4198    .data               wifi_ufo.o
    0x20000140   COMPRESSED   0x00000006   Data   RW         4252    .data               ano_data_transfer.o
    0x20000146   COMPRESSED   0x00000002   PAD
    0x20000148   COMPRESSED   0x0000001c   Data   RW         4476    .data               imu.o
    0x20000164   COMPRESSED   0x00000004   Data   RW         4762    .data               mc_w.l(errno.o)
    0x20000168        -       0x0000003c   Zero   RW          392    .bss                scheduler.o
    0x200001a4        -       0x00000674   Zero   RW          454    .bss                init.o
    0x20000818        -       0x00000100   Zero   RW         3702    .bss                uart1.o
    0x20000918        -       0x00000100   Zero   RW         3750    .bss                usart2.o
    0x20000a18        -       0x00000040   Zero   RW         3827    .bss                nrf24l01.o
    0x20000a58        -       0x00000018   Zero   RW         4005    .bss                mpu6050.o
    0x20000a70        -       0x0000017a   Zero   RW         4066    .bss                ano_dt.o
    0x20000bea        -       0x00000040   Zero   RW         4251    .bss                ano_data_transfer.o
    0x20000c2a   COMPRESSED   0x00000002   PAD
    0x20000c2c        -       0x0000000c   Zero   RW         4475    .bss                imu.o
    0x20000c38        -       0x00000400   Zero   RW          103    STACK               startup_stm32f10x_md.o


==============================================================================

Image component sizes


      Code (inc. data)   RO Data    RW Data    ZI Data      Debug   Object Name

         0          0          0         10          0       1277   adc.o
      3704        196          0          6         64       9663   ano_data_transfer.o
      2644        274          0         20        378       7012   ano_dt.o
       948         82          0         58          0       2353   control.o
         0          0          0          0          0       4532   core_cm3.o
       224         36          0         10          0       2670   delay.o
      1616         38          0          0          0       7881   iic_software.o
      1900         44          0         28         12       1851   imu.o
       304         92          0         19       1652       5593   init.o
        88          0          0          0          0       1579   kalman.o
       380         36          0         12          0       3396   led.o
       176         14          0          0          0     220562   main.o
       132         22          0          0          0       1443   misc.o
       708         46          0         76         24       3962   mpu6050.o
        80          6         24          0          0        961   mymath.o
      1028        100         10         10         64     220911   nrf24l01.o
       180          0          0          0          0       2031   pid.o
       610         74          0         13          0       2587   remote.o
       724        112          0          9         60       5102   scheduler.o
       204         14          0          0          0       1114   spi.o
        36          8        236          0       1024        796   startup_stm32f10x_md.o
       426          6          0          0          0       3225   stm32f10x_gpio.o
        32          0          0          0          0       3946   stm32f10x_it.o
        68         30          0          0          0       2354   stm32f10x_iwdg.o
       276         32          0         20          0       4314   stm32f10x_rcc.o
       112          0          0          0          0       3682   stm32f10x_spi.o
       918         92          0          0          0       7779   stm32f10x_tim.o
       392          6          0          0          0       5835   stm32f10x_usart.o
       328         28          0         20          0      52549   system_stm32f10x.o
       464         26          0          0          0       1392   tim.o
       340         24          0          3        256       2045   uart1.o
       132         18          0          2        256       1138   usart2.o
       252         12          0          0          0       1738   usart3.o
       592         66          0         26          0       2988   wifi_ufo.o

    ----------------------------------------------------------------------
     20044       1534        304        356       3792     600261   Object Totals
         0          0         32          0          0          0   (incl. Generated)
        26          0          2         14          2          0   (incl. Padding)

    ----------------------------------------------------------------------

      Code (inc. data)   RO Data    RW Data    ZI Data      Debug   Library Member Name

       624         52         80          0          0        168   asin.o
       604         76          0          0          0        116   atan2f.o
        34          6          0          0          0        204   dunder.o
        40          0          0          0          0         68   fpclassify.o
        38          0          0          0          0         68   fpclassifyf.o
        14          0          0          0          0        136   funder.o
       170          0          0          0          0         96   poly.o
        76          0          0          0          0         84   sqrt.o
        86          0          0          0          0          0   __dczerorl2.o
         0          0          0          0          0          0   entry.o
         0          0          0          0          0          0   entry10a.o
         0          0          0          0          0          0   entry11a.o
         8          4          0          0          0          0   entry2.o
         4          0          0          0          0          0   entry5.o
         0          0          0          0          0          0   entry7b.o
         0          0          0          0          0          0   entry8b.o
         8          4          0          0          0          0   entry9a.o
        12          6          0          4          0         68   errno.o
        30          0          0          0          0          0   handlers.o
        36          8          0          0          0         68   init.o
         0          0          0          0          0          0   iusefp.o
        30          0          0          0          0         68   llshl.o
        36          0          0          0          0         68   llsshr.o
        32          0          0          0          0         68   llushr.o
        36          0          0          0          0         68   memcpya.o
        36          0          0          0          0        108   memseta.o
        20          0          0          0          0         68   cfcmple.o
        20          0          0          0          0         68   cfrcmple.o
        56          0          0          0          0         88   d2f.o
       334          0          0          0          0        148   dadd.o
       222          0          0          0          0        100   ddiv.o
       186          0          0          0          0        176   depilogue.o
        50          0          0          0          0         76   dfixui.o
       228          0          0          0          0         96   dmul.o
        46          0          0          0          0         80   dscalb.o
       162          0          0          0          0        100   dsqrt.o
        38          0          0          0          0         68   f2d.o
       176          0          0          0          0        140   fadd.o
       124          0          0          0          0         88   fdiv.o
       110          0          0          0          0        168   fepilogue.o
        50          0          0          0          0         68   ffixi.o
        40          0          0          0          0         68   ffixui.o
        18          0          0          0          0         68   fflti.o
        10          0          0          0          0         68   ffltui.o
       100          0          0          0          0         76   fmul.o
        24          0          0          0          0         68   fscalb.o

    ----------------------------------------------------------------------
      3972        156         80          4          0       3336   Library Totals
         4          0          0          0          0          0   (incl. Padding)

    ----------------------------------------------------------------------

      Code (inc. data)   RO Data    RW Data    ZI Data      Debug   Library Name

      1600        134         80          0          0        940   m_ws.l
       354         22          0          4          0        516   mc_w.l
      2014          0          0          0          0       1880   mf_w.l

    ----------------------------------------------------------------------
      3972        156         80          4          0       3336   Library Totals

    ----------------------------------------------------------------------

==============================================================================


      Code (inc. data)   RO Data    RW Data    ZI Data      Debug   

     24016       1690        384        360       3792     595197   Grand Totals
     24016       1690        384        120       3792     595197   ELF Image Totals (compressed)
     24016       1690        384        120          0          0   ROM Totals

==============================================================================

    Total RO  Size (Code + RO Data)                24400 (  23.83kB)
    Total RW  Size (RW Data + ZI Data)              4152 (   4.05kB)
    Total ROM Size (Code + RO Data + RW Data)      24520 (  23.95kB)

==============================================================================

